(ipopulation
Population
p1
(dp2
S'lumDistType'
p3
NsS'gpsFrac'
p4
NsS'deathline'
p5
I01
sS'birthvmean'
p6
F0
sS'brokenSI'
p7
NsS'electronModel'
p8
S'ne2001'
p9
sS'radialDistType'
p10
NsS'birthvsigma'
p11
F180
sS'ref_freq'
p12
F1400
sS'spatialModel'
p13
S'spiralarms'
p14
sS'lummean'
p15
NsS'bmean'
p16
F12.65
sS'simean'
p17
F-1.6000000000000001
sS'pmean'
p18
F0.29999999999999999
sS'braking_index'
p19
I0
sS'pDistType'
p20
NsS'lumsigma'
p21
NsS'brokenFrac'
p22
NsS'spinModel'
p23
S'fk06'
p24
sS'population'
p25
(lp26
(ipulsar
Pulsar
p27
(dp28
g7
NsS'brokenFlag'
p29
I0
sS'width_degree'
p30
NsS'period'
p31
NsS'dead'
p32
I00
sS'bfield_init'
p33
F10175030008340.857
sS'gb'
p34
F46.189061636014877
sS'lum_1400'
p35
F0.24086668495763386
sS'vx'
p36
F-82.052017211914062
sS'vy'
p37
F-161.69523620605469
sS'p_t'
p38
F8.4400316145939041
sS'gl'
p39
F-45.683801387055865
sS'vz'
p40
F401.744384765625
sS'beaming'
p41
I00
sS'dtrue'
p42
F4.8925071193704222
sS'chi'
p43
F90
sS'galCoords'
p44
(F-2.4233748912811279
F6.1337895393371582
F3.5305705070495605
tp45
sS'scindex'
p46
F-3.8599999999999999
sg19
F2.8016690771750352
sS'sinchi_init'
p47
F1
sS'dm'
p48
F39.106014251708984
sS'sinchi'
p49
F1
sS'gpsFlag'
p50
I0
sS'snr'
p51
NsS'rho'
p52
NsS'alpha'
p53
NsS'spindex'
p54
F-1.7454295590933642
sS'p0'
p55
F0.19939533541619087
sS'r0'
p56
F5.6950675176798757
sS'pdot'
p57
F1.8291766545263413e-14
sS'age'
p58
F8106049.9320445564
sS'gpsA'
p59
Nsba(ipulsar
Pulsar
p60
(dp61
g7
Nsg29
I0
sg30
Nsg31
Nsg32
I00
sg33
F248860819941.99246
sg34
F21.537725628303413
sg35
F0.052753818998802333
sg36
F-150.02989196777344
sg37
F-519.35211181640625
sg38
F0.4195268540156914
sg39
F24.4772673397806
sg40
F-35.771232604980469
sg41
I01
sg42
F10.127808310190572
sg43
F90
sg44
(F3.9032762050628662
F-0.073971174657344818
F3.7180578708648682
tp62
sg46
F-3.8599999999999999
sg19
F2.8009298030156367
sg47
F1
sg48
F88.79302978515625
sg49
F1
sg50
I0
sg51
Nsg52
Nsg53
Nsg54
F-1.2944563295201603
sg55
F0.13619781025760128
sg56
F14.339605704331298
sg57
F1.2130023804790162e-16
sg58
F52832495.156617917
sg59
Nsba(ipulsar
Pulsar
p63
(dp64
g7
Nsg29
I0
sg30
Nsg31
Nsg32
I00
sg33
F292042521682.17151
sg34
F-6.5570955328100409
sg35
F0.21490638870131523
sg36
F6.871708869934082
sg37
F-606.76666259765625
sg38
F1.2682667373364378
sg39
F2.1565666610097285
sg40
F-40.624233245849609
sg41
I00
sg42
F138.85899596270218
sg43
F90
sg44
(F5.1911249160766602
F-129.35295104980469
F-15.85676097869873
tp65
sg46
F-3.8599999999999999
sg19
F2.7332754176923855
sg47
F1
sg48
F364.02584838867188
sg49
F1
sg50
I0
sg51
Nsg52
Nsg53
Nsg54
F-1.7653356458878324
sg55
F0.2678064846170814
sg56
F2.2803095062947945
sg57
F6.9986783256550942e-17
sg58
F308942133.83514589
sg59
Nsba(ipulsar
Pulsar
p66
(dp67
g7
Nsg29
I0
sg30
Nsg31
Nsg32
I00
sg33
F1463552611464.0918
sg34
F20.447641869412575
sg35
F0.066093575545109293
sg36
F25.967979431152344
sg37
F-336.61752319335938
sg38
F2.0893000582562449
sg39
F95.78082421530307
sg40
F132.28196716308594
sg41
I00
sg42
F14.116010966943165
sg43
F90
sg44
(F13.159322738647461
F9.8322257995605469
F4.9314465522766113
tp68
sg46
F-3.8599999999999999
sg19
F2.8449428977798967
sg47
F1
sg48
F67.05230712890625
sg49
F1
sg50
I0
sg51
Nsg52
Nsg53
Nsg54
F-1.0786098629981287
sg55
F0.21890731796639257
sg56
F17.343618683044191
sg57
F1.1226384479815029e-15
sg58
F31467784.826857083
sg59
Nsba(ipulsar
Pulsar
p69
(dp70
g7
Nsg29
I0
sg30
Nsg31
Nsg32
I00
sg33
F131999682583.63892
sg34
F0.077550264612939554
sg35
F0.038303958536098449
sg36
F136.31124877929688
sg37
F-131.70150756835938
sg38
F0.53774797322792012
sg39
F-58.517851687519844
sg40
F-7.526918888092041
sg41
I01
sg42
F17.909689274643295
sg43
F90
sg44
(F-15.273421287536621
F-0.8530200719833374
F0.024240890517830849
tp71
sg46
F-3.8599999999999999
sg19
F2.5161232598103691
sg47
F1
sg48
F766.2757568359375
sg49
F1
sg50
I0
sg51
Nsg52
Nsg53
Nsg54
F-1.4564408871992305
sg55
F0.34226265261914646
sg56
F5.5661261016868702
sg57
F2.3442611043782062e-17
sg58
F237764775.58785492
sg59
Nsba(ipulsar
Pulsar
p72
(dp73
g7
Nsg29
I0
sg30
Nsg31
Nsg32
I00
sg33
F5081769428638.1514
sg34
F-2.1510664318674677
sg35
F0.018199597025481129
sg36
F65.004928588867188
sg37
F-271.72286987304688
sg38
F5.2531769461236033
sg39
F27.239730683782422
sg40
F-20.291719436645508
sg41
I00
sg42
F7.7977890479371119
sg43
F90
sg44
(F3.5666465759277344
F1.5718774795532227
F-0.2926851212978363
tp74
sg46
F-3.8599999999999999
sg19
F2.9659259597909244
sg47
F1
sg48
F398.20486450195312
sg49
F1
sg50
I0
sg51
Nsg52
Nsg53
Nsg54
F-1.6351504310778693
sg55
F0.44189757131882512
sg56
F1.7577789964250461
sg57
F5.081140723254834e-15
sg58
F16536468.242945191
sg59
Nsba(ipulsar
Pulsar
p75
(dp76
g7
Nsg29
I0
sg30
Nsg31
Nsg32
I00
sg33
F896827321805.02344
sg34
F2.8295500934416391
sg35
F0.072641638480294105
sg36
F-83.422653198242188
sg37
F-286.25411987304688
sg38
F1.5320136408626603
sg39
F1.6867796865946125
sg40
F-25.38209342956543
sg41
I00
sg42
F17.398901833098012
sg43
F90
sg44
(F0.51152282953262329
F-8.8701591491699219
F0.858894944190979
tp77
sg46
F-3.8599999999999999
sg19
F2.5886295977085276
sg47
F1
sg48
F695.676025390625
sg49
F1
sg50
I0
sg51
Nsg52
Nsg53
Nsg54
F-1.5803408398073857
sg55
F0.19795120951468995
sg56
F2.2364539352143935
sg57
F6.1118437562573729e-16
sg58
F48063295.444673359
sg59
Nsba(ipulsar
Pulsar
p78
(dp79
g7
Nsg29
I0
sg30
Nsg31
Nsg32
I00
sg33
F192550254065.30951
sg34
F-12.643430835460487
sg35
F1.3168781409729713
sg36
F338.58828735351562
sg37
F-341.86859130859375
sg38
F0.67821081889768908
sg39
F71.319152674138181
sg40
F-75.970733642578125
sg41
I00
sg42
F83.563066731381014
sg43
F90
sg44
(F77.241188049316406
F-17.615924835205078
F-18.290529251098633
tp80
sg46
F-3.8599999999999999
sg19
F2.5888257293414818
sg47
F1
sg48
F108.48359680175781
sg49
F1
sg50
I0
sg51
Nsg52
Nsg53
Nsg54
F-1.4110974361522453
sg55
F0.33943840605883396
sg56
F6.6778902698757445
sg57
F4.551878262295516e-17
sg58
F198223372.42506605
sg59
Nsba(ipulsar
Pulsar
p81
(dp82
g7
Nsg29
I0
sg30
Nsg31
Nsg32
I00
sg33
F3228769476289.6694
sg34
F-9.2120156006939506
sg35
F0.0086491312147692068
sg36
F67.761726379394531
sg37
F-326.57101440429688
sg38
F4.8113754615558495
sg39
F13.853104296747897
sg40
F-99.951614379882812
sg41
I00
sg42
F11.223082602088258
sg43
F90
sg44
(F2.6525239944458008
F-2.2560973167419434
F-1.7966830730438232
tp83
sg46
F-3.8599999999999999
sg19
F2.7022364968595123
sg47
F1
sg48
F234.93144226074219
sg49
F1
sg50
I0
sg51
Nsg52
Nsg53
Nsg54
F-1.8373295806076291
sg55
F0.49634594591687486
sg56
F3.2798647201044879
sg57
F3.3788223748774776e-15
sg58
F25953945.664943356
sg59
Nsba(ipulsar
Pulsar
p84
(dp85
g7
Nsg29
I0
sg30
Nsg31
Nsg32
I00
sg33
F5442515197826.042
sg34
F-8.1864924308699685
sg35
F0.14062986446114911
sg36
F-59.918060302734375
sg37
F-620.00323486328125
sg38
F6.0519970991354404
sg39
F21.358932186022376
sg40
F-80.525680541992188
sg41
I00
sg42
F12.957927157742077
sg43
F90
sg44
(F4.6713066101074219
F-3.4449648857116699
F-1.8451516628265381
tp86
sg46
F-3.8599999999999999
sg19
F2.7812513984642924
sg47
F1
sg48
F271.26083374023438
sg49
F1
sg50
I0
sg51
Nsg52
Nsg53
Nsg54
F-1.4795077227032702
sg55
F0.40047576466456092
sg56
F5.5379830671744648
sg57
F7.0883554969350023e-15
sg58
F15068691.097911756
sg59
Nsba(ipulsar
Pulsar
p87
(dp88
g7
Nsg29
I0
sg30
Nsg31
Nsg32
I00
sg33
F3202732701216.9448
sg34
F8.2221986144169499
sg35
F0.11094491296161722
sg36
F-178.4229736328125
sg37
F-207.36732482910156
sg38
F4.1167238015211005
sg39
F-27.926776335125343
sg40
F82.539970397949219
sg41
I00
sg42
F15.928872806794471
sg43
F90
sg44
(F-7.383488655090332
F-5.4292383193969727
F2.2780263423919678
tp89
sg46
F-3.8599999999999999
sg19
F2.7347293739181282
sg47
F1
sg48
F266.96844482421875
sg49
F1
sg50
I0
sg51
Nsg52
Nsg53
Nsg54
F-1.8194354590167376
sg55
F0.22814349824827773
sg56
F5.5061045038795857
sg57
F3.5425650290142718e-15
sg58
F21087498.850313023
sg59
Nsba(ipulsar
Pulsar
p90
(dp91
g7
Nsg29
I0
sg30
Nsg31
Nsg32
I00
sg33
F4016140746186.3799
sg34
F2.4776505634801906
sg35
F6.7536217990660736
sg36
F234.01541137695312
sg37
F-233.80624389648438
sg38
F0.44357910703673681
sg39
F120.13823481028918
sg40
F-174.31863403320312
sg41
I00
sg42
F7.8529907117594551
sg43
F90
sg44
(F6.7850475311279297
F12.439206123352051
F0.33948230743408203
tp92
sg46
F-3.8599999999999999
sg19
F2.6918404947386376
sg47
F1
sg48
F203.65756225585938
sg49
F1
sg50
I0
sg51
Nsg52
Nsg53
Nsg54
F-1.679408363367167
sg55
F0.37080503337682608
sg56
F14.161226857000983
sg57
F2.7647966885219499e-14
sg58
F78592.086939499597
sg59
Nsba(ipulsar
Pulsar
p93
(dp94
g7
Nsg29
I0
sg30
Nsg31
Nsg32
I00
sg33
F126150572026.68814
sg34
F30.508530642782862
sg35
F0.0051101822645768635
sg36
F1.318328857421875
sg37
F-48.996891021728516
sg38
F0.70843465298490116
sg39
F-18.893567810600931
sg40
F15.796504020690918
sg41
I00
sg42
F15.147014179734976
sg43
F90
sg44
(F-4.2257246971130371
F-3.8468546867370605
F7.689633846282959
tp95
sg46
F-3.8599999999999999
sg19
F2.5673467471962352
sg47
F1
sg48
F60.657730102539062
sg49
F1
sg50
I0
sg51
Nsg52
Nsg53
Nsg54
F-1.6964054787289193
sg55
F0.407999113046282
sg56
F10.44140696223611
sg57
F1.890235967839461e-17
sg58
F438648935.05931044
sg59
Nsba(ipulsar
Pulsar
p96
(dp97
g7
Nsg29
I0
sg30
Nsg31
Nsg32
I00
sg33
F441781577138.58942
sg34
F8.6584216802715392
sg35
F1.0000875931343252
sg36
F-30.433967590332031
sg37
F-39.747074127197266
sg38
F0.72680265416946055
sg39
F-49.308823855445532
sg40
F-5.3406920433044434
sg41
I00
sg42
F9.4340269813325133
sg43
F90
sg44
(F-7.0716848373413086
F2.4192860126495361
F1.4202309846878052
tp98
sg46
F-3.8599999999999999
sg19
F2.9903914268369545
sg47
F1
sg48
F237.9342041015625
sg49
F1
sg50
I0
sg51
Nsg52
Nsg53
Nsg54
F-1.6322670446271568
sg55
F0.40213586885070973
sg56
F4.3074795974704951
sg57
F2.6150064187366051e-16
sg58
F30626113.761190064
sg59
Nsba(ipulsar
Pulsar
p99
(dp100
g7
Nsg29
I0
sg30
Nsg31
Nsg32
I00
sg33
F534903153599.57281
sg34
F-21.531943982084965
sg35
F0.05109506852089251
sg36
F8.1504907608032227
sg37
F-126.96379852294922
sg38
F0.85965846168039239
sg39
F-52.907435935527104
sg40
F-24.303485870361328
sg41
I00
sg42
F11.887337038112248
sg43
F90
sg44
(F-8.8203544616699219
F1.8310176134109497
F-4.362889289855957
tp101
sg46
F-3.8599999999999999
sg19
F2.6503791661770246
sg47
F1
sg48
F92.381515502929688
sg49
F1
sg50
I0
sg51
Nsg52
Nsg53
Nsg54
F-1.7471677083972537
sg55
F0.25067631559628351
sg56
F5.0530957107970504
sg57
F3.0836778872269424e-16
sg58
F46524881.214981437
sg59
Nsba(ipulsar
Pulsar
p102
(dp103
g7
Nsg29
I0
sg30
Nsg31
Nsg32
I00
sg33
F168798235449.84738
sg34
F35.894077139026635
sg35
F0.026272006008676827
sg36
F301.43820190429688
sg37
F-446.512939453125
sg38
F0.77470585271222481
sg39
F51.845192644583648
sg40
F262.35244750976562
sg41
I00
sg42
F153.8381656755202
sg43
F90
sg44
(F97.997894287109375
F-68.491653442382812
F90.193565368652344
tp104
sg46
F-3.8599999999999999
sg19
F2.8978569118319757
sg47
F1
sg48
F42.354812622070312
sg49
F1
sg50
I0
sg51
Nsg52
Nsg53
Nsg54
F-1.7093633455301729
sg55
F0.28802616401777376
sg56
F6.2517378637123437
sg57
F3.500102097726449e-17
sg58
F313054267.8689757
sg59
Nsba(ipulsar
Pulsar
p105
(dp106
g7
Nsg29
I0
sg30
Nsg31
Nsg32
I00
sg33
F122674426008.75313
sg34
F5.6960167431610849
sg35
F0.015233668079212398
sg36
F41.236709594726562
sg37
F-300.85601806640625
sg38
F0.72092060548494052
sg39
F-17.120564485038368
sg40
F123.19198608398438
sg41
I00
sg42
F7.483651202738046
sg43
F90
sg44
(F-2.1921846866607666
F1.3832820653915405
F0.74275666475296021
tp107
sg46
F-3.8599999999999999
sg19
F2.7557209071044602
sg47
F1
sg48
F294.91769409179688
sg49
F1
sg50
I0
sg51
Nsg52
Nsg53
Nsg54
F-1.6184053457941174
sg55
F0.27722699923042599
sg56
F1.07697508313447
sg57
F1.8823967043325366e-17
sg58
F562140681.92207897
sg59
Nsba(ipulsar
Pulsar
p108
(dp109
g7
Nsg29
I0
sg30
Nsg31
Nsg32
I00
sg33
F674353253236.64026
sg34
F27.344831271498908
sg35
F0.0519843322051717
sg36
F35.701381683349609
sg37
F-155.58131408691406
sg38
F0.95687393358831585
sg39
F-12.669826212892406
sg40
F94.42376708984375
sg41
I00
sg42
F13.599760859755992
sg43
F90
sg44
(F-2.6495571136474609
F-3.2859494686126709
F6.2469782829284668
tp110
sg46
F-3.8599999999999999
sg19
F2.8165174529425872
sg47
F1
sg48
F68.195831298828125
sg49
F1
sg50
I0
sg51
Nsg52
Nsg53
Nsg54
F-1.3767180910991963
sg55
F0.28888900265288986
sg56
F4.3940085307726946
sg57
F4.6048237995884602e-16
sg58
F32133805.739865571
sg59
Nsba(ipulsar
Pulsar
p111
(dp112
g7
Nsg29
I0
sg30
Nsg31
Nsg32
I00
sg33
F1172632776423.9333
sg34
F-21.282205229045271
sg35
F0.16802497811706923
sg36
F107.3382568359375
sg37
F-519.562255859375
sg38
F1.3458737834301309
sg39
F19.220674619654282
sg40
F-211.21830749511719
sg41
I00
sg42
F16.09329157877275
sg43
F90
sg44
(F4.9367260932922363
F-5.6598925590515137
F-5.8412508964538574
tp113
sg46
F-3.8599999999999999
sg19
F2.7808838791549819
sg47
F1
sg48
F95.18768310546875
sg49
F1
sg50
I0
sg51
Nsg52
Nsg53
Nsg54
F-1.6393566337127412
sg55
F0.22585944733859359
sg56
F2.1304837710221611
sg57
F1.0651047087216038e-15
sg58
F21548170.407574508
sg59
Nsba(ipulsar
Pulsar
p114
(dp115
g7
Nsg29
I0
sg30
Nsg31
Nsg32
I00
sg33
F129073861501.19318
sg34
F-26.697211442942336
sg35
F0.9256101683645177
sg36
F-216.080810546875
sg37
F-259.34506225585938
sg38
F0.83443928674347267
sg39
F-74.879659469152799
sg40
F-119.77516937255859
sg41
I00
sg42
F177.82270502884802
sg43
F90
sg44
(F-153.36569213867188
F-32.939655303955078
F-79.891387939453125
tp116
sg46
F-3.8599999999999999
sg19
F2.8315221442445235
sg47
F1
sg48
F66.501060485839844
sg49
F1
sg50
I0
sg51
Nsg52
Nsg53
Nsg54
F-2.1385430692686489
sg55
F0.35414358208617081
sg56
F7.8438998219853406
sg57
F1.8916651750654438e-17
sg58
F604383235.72267878
sg59
Nsba(ipulsar
Pulsar
p117
(dp118
g7
Nsg29
I0
sg30
Nsg31
Nsg32
I00
sg33
F296930799043.34814
sg34
F0.042981540583725615
sg35
F0.014027522341245064
sg36
F84.469741821289062
sg37
F-275.1746826171875
sg38
F0.56531885152556027
sg39
F50.747266062382764
sg40
F25.264608383178711
sg41
I01
sg42
F21.545982076718456
sg43
F90
sg44
(F16.684394836425781
F-5.1330499649047852
F0.016163134947419167
tp119
sg46
F-3.8599999999999999
sg19
F2.5804627811654295
sg47
F1
sg48
F639.52288818359375
sg49
F1
sg50
I0
sg51
Nsg52
Nsg53
Nsg54
F-1.7328625606466035
sg55
F0.1367387176655373
sg56
F3.5212416866038665
sg57
F1.1992247067077268e-16
sg58
F84487649.92708157
sg59
Nsba(ipulsar
Pulsar
p120
(dp121
g7
Nsg29
I0
sg30
Nsg31
Nsg32
I00
sg33
F641279834415.06921
sg34
F1.5002335070627548
sg35
F0.85154875882974024
sg36
F-67.165512084960938
sg37
F317.54946899414062
sg38
F0.69515546597910538
sg39
F-23.120515192721069
sg40
F-49.038036346435547
sg41
I00
sg42
F6.4470145212323997
sg43
F90
sg44
(F-2.530658483505249
F2.5728359222412109
F0.16878943145275116
tp122
sg46
F-3.8599999999999999
sg19
F2.7611003566724661
sg47
F1
sg48
F472.37710571289062
sg49
F1
sg50
I0
sg51
Nsg52
Nsg53
Nsg54
F-0.88512643582303041
sg55
F0.58311434910708737
sg56
F2.100401912135041
sg57
F5.2977603423861751e-16
sg58
F6285176.2130088359
sg59
Nsba(ipulsar
Pulsar
p123
(dp124
g7
Nsg29
I0
sg30
Nsg31
Nsg32
I00
sg33
F1161395122177.8374
sg34
F-0.21936098796317977
sg35
F4.9955614377657618
sg36
F91.474517822265625
sg37
F-418.69107055664062
sg38
F0.46858523579536737
sg39
F66.271425010244528
sg40
F71.124160766601562
sg41
I01
sg42
F11.548355530558705
sg43
F90
sg44
(F10.572003364562988
F3.8529250621795654
F-0.044213596731424332
tp125
sg46
F-3.8599999999999999
sg19
F2.6407454967568862
sg47
F1
sg48
F370.0233154296875
sg49
F1
sg50
I0
sg51
Nsg52
Nsg53
Nsg54
F-1.9727515390516399
sg55
F0.26758559865819248
sg56
F11.205056921872229
sg57
F2.1414422546879017e-15
sg58
F2540736.6806268208
sg59
Nsba(ipulsar
Pulsar
p126
(dp127
g7
Nsg29
I0
sg30
Nsg31
Nsg32
I00
sg33
F660245493489.078
sg34
F10.627633610113284
sg35
F0.01592245761250189
sg36
F98.654533386230469
sg37
F-352.62539672851562
sg38
F1.8528730453091555
sg39
F34.544864463472777
sg40
F-38.179821014404297
sg41
I00
sg42
F9.0062943377955502
sg43
F90
sg44
(F5.0194282531738281
F1.2089238166809082
F1.6609894037246704
tp128
sg46
F-3.8599999999999999
sg19
F2.970930695352151
sg47
F1
sg48
F176.70339965820312
sg49
F1
sg50
I0
sg51
Nsg52
Nsg53
Nsg54
F-1.6286822871052125
sg55
F0.26417780997247148
sg56
F3.1684265821150595
sg57
F2.3396827110875835e-16
sg58
F124588586.05375911
sg59
Nsba(ipulsar
Pulsar
p129
(dp130
g7
Nsg29
I0
sg30
Nsg31
Nsg32
I00
sg33
F3690717977869.895
sg34
F2.5781551602323707
sg35
F0.16937552901126296
sg36
F-285.98263549804688
sg37
F-66.547554016113281
sg38
F4.1700568048477002
sg39
F-29.752373440444657
sg40
F77.934234619140625
sg41
I00
sg42
F13.577420864148783
sg43
F90
sg44
(F-6.7310085296630859
F-3.2756900787353516
F0.61074107885360718
tp131
sg46
F-3.8599999999999999
sg19
F2.5273094434751622
sg47
F1
sg48
F452.03799438476562
sg49
F1
sg50
I0
sg51
Nsg52
Nsg53
Nsg54
F-1.0172174327854173
sg55
F0.15086487685362654
sg56
F5.4517046536479814
sg57
F6.2664366561546825e-15
sg58
F13720243.450728308
sg59
Nsba(ipulsar
Pulsar
p132
(dp133
g7
Nsg29
I0
sg30
Nsg31
Nsg32
I00
sg33
F2883195105063.3652
sg34
F-2.3215458479339004
sg35
F0.060930891632316436
sg36
F147.1038818359375
sg37
F-440.58270263671875
sg38
F2.009382434797387
sg39
F32.429701639963149
sg40
F-9.2627439498901367
sg41
I00
sg42
F8.9147699723050806
sg43
F90
sg44
(F4.7767500877380371
F0.98166388273239136
F-0.36111533641815186
tp134
sg46
F-3.8599999999999999
sg19
F2.578880666858689
sg47
F1
sg48
F390.10400390625
sg49
F1
sg50
I0
sg51
Nsg52
Nsg53
Nsg54
F-2.3695302802469675
sg55
F0.2411069298841263
sg56
F4.2609138720540898
sg57
F5.4214646958425905e-15
sg58
F7177221.9679215876
sg59
Nsba(ipulsar
Pulsar
p135
(dp136
g7
Nsg29
I0
sg30
Nsg31
Nsg32
I00
sg33
F309940042778.43872
sg34
F-50.92353405250222
sg35
F0.3488900070814453
sg36
F83.539131164550781
sg37
F-95.267082214355469
sg38
F1.3674750891325906
sg39
F-15.82227986367246
sg40
F-6.5516300201416016
sg41
I00
sg42
F1.6853624166340229
sg43
F90
sg44
(F-0.28966256976127625
F7.4778714179992676
F-1.3083559274673462
tp137
sg46
F-3.8599999999999999
sg19
F2.7305106108605774
sg47
F1
sg48
F32.840827941894531
sg49
F1
sg50
I0
sg51
Nsg52
Nsg53
Nsg54
F-1.0895643182315897
sg55
F0.35112856731587377
sg56
F8.7708537188799731
sg57
F7.4656984986302246e-17
sg58
F303513076.44374335
sg59
Nsba(ipulsar
Pulsar
p138
(dp139
g7
Nsg29
I0
sg30
Nsg31
Nsg32
I00
sg33
F2560169691455.5176
sg34
F9.8349051929397096
sg35
F0.0024782702510461507
sg36
F-250.06996154785156
sg37
F-368.16278076171875
sg38
F3.6176711312733141
sg39
F26.649072501220914
sg40
F80.478317260742188
sg41
I00
sg42
F17.569346617019832
sg43
F90
sg44
(F7.7644782066345215
F-6.9721918106079102
F3.00101637840271
tp140
sg46
F-3.8599999999999999
sg19
F2.9881662782153859
sg47
F1
sg48
F219.9674072265625
sg49
F1
sg50
I0
sg51
Nsg52
Nsg53
Nsg54
F-1.8450694429269523
sg55
F0.20236615266363961
sg56
F14.40148918926832
sg57
F1.7968936124206813e-15
sg58
F31985363.098245956
sg59
Nsba(ipulsar
Pulsar
p141
(dp142
g7
Nsg29
I0
sg30
Nsg31
Nsg32
I00
sg33
F385867547236.8493
sg34
F2.1370490692416495
sg35
F0.00864741719286162
sg36
F-108.19081878662109
sg37
F-167.80929565429688
sg38
F1.4996682602042744
sg39
F-74.545694079857029
sg40
F1.5647186040878296
sg41
I00
sg42
F51.638310569859115
sg43
F90
sg44
(F-49.736621856689453
F-5.2504792213439941
F1.9255871772766113
tp143
sg46
F-3.8599999999999999
sg19
F2.8406130078320357
sg47
F1
sg48
F529.2403564453125
sg49
F1
sg50
I0
sg51
Nsg52
Nsg53
Nsg54
F-0.96469554765246923
sg55
F0.056946121561619822
sg56
F15.664081260099383
sg57
F1.0345186049997899e-16
sg58
F248968310.97273499
sg59
Nsba(ipulsar
Pulsar
p144
(dp145
g7
Nsg29
I0
sg30
Nsg31
Nsg32
I00
sg33
F815746888321.55994
sg34
F-2.539754652680378
sg35
F0.013882220613894651
sg36
F-8.3299922943115234
sg37
F-255.212890625
sg38
F2.0905123645694519
sg39
F57.952588699999346
sg40
F-13.50713062286377
sg41
I00
sg42
F19.352563944937856
sg43
F90
sg44
(F16.387300491333008
F-1.7587865591049194
F-0.85756176710128784
tp146
sg46
F-3.8599999999999999
sg19
F2.8685804638951424
sg47
F1
sg48
F424.900390625
sg49
F1
sg50
I0
sg51
Nsg52
Nsg53
Nsg54
F-1.1955663257082567
sg55
F0.28369656499995571
sg56
F2.7235290312622413
sg57
F3.4257149948036632e-16
sg58
F101011339.886383
sg59
Nsba(ipulsar
Pulsar
p147
(dp148
g7
Nsg29
I0
sg30
Nsg31
Nsg32
I00
sg33
F682006595099.8186
sg34
F-12.656594439612627
sg35
F0.36048627059236515
sg36
F44.567977905273438
sg37
F-100.81488800048828
sg38
F1.6676742953560406
sg39
F13.640167546342949
sg40
F-173.58409118652344
sg41
I00
sg42
F6.6448090033651157
sg43
F90
sg44
(F1.5289249420166016
F2.1995112895965576
F-1.4559248685836792
tp149
sg46
F-3.8599999999999999
sg19
F2.5261128216385966
sg47
F1
sg48
F162.32676696777344
sg49
F1
sg50
I0
sg51
Nsg52
Nsg53
Nsg54
F-1.106214420869581
sg55
F0.29931773474428941
sg56
F4.6662609045761059
sg57
F3.4715804275966807e-16
sg58
F92495774.473710939
sg59
Nsba(ipulsar
Pulsar
p150
(dp151
g7
Nsg29
I0
sg30
Nsg31
Nsg32
I00
sg33
F654233807096.84814
sg34
F-49.007027941372918
sg35
F0.010375290586182534
sg36
F-28.512985229492188
sg37
F131.35012817382812
sg38
F2.0355587463902354
sg39
F-146.46771476283558
sg40
F-307.0428466796875
sg41
I00
sg42
F64.651677669292724
sg43
F90
sg44
(F-23.427202224731445
F43.851345062255859
F-48.798442840576172
tp152
sg46
F-3.8599999999999999
sg19
F2.6773695496635659
sg47
F1
sg48
F35.675724029541016
sg49
F1
sg50
I0
sg51
Nsg52
Nsg53
Nsg54
F-1.4295701187511218
sg55
F0.1787426188739035
sg56
F19.537857205636538
sg57
F2.5833230366234368e-16
sg58
F146345281.44489923
sg59
Nsba(ipulsar
Pulsar
p153
(dp154
g7
Nsg29
I0
sg30
Nsg31
Nsg32
I00
sg33
F3599569439457.9463
sg34
F42.412021052721457
sg35
F0.0057068917401088791
sg36
F-475.69146728515625
sg37
F55.242061614990234
sg38
F4.7944327966891169
sg39
F-61.536192591873764
sg40
F477.941650390625
sg41
I00
sg42
F18.91108402379049
sg43
F90
sg44
(F-12.274527549743652
F1.8455111980438232
F12.754718780517578
tp155
sg46
F-3.8599999999999999
sg19
F2.8367739348674306
sg47
F1
sg48
F43.730934143066406
sg49
F1
sg50
I0
sg51
Nsg52
Nsg53
Nsg54
F-1.3712417247278288
sg55
F0.2515442172919003
sg56
F4.7657734496400694
sg57
F3.409444205217336e-15
sg58
F24152669.941810422
sg59
Nsba(ipulsar
Pulsar
p156
(dp157
g7
Nsg29
I0
sg30
Nsg31
Nsg32
I00
sg33
F10787395314227.576
sg34
F8.0413996860963231
sg35
F0.0077495892892747165
sg36
F355.6295166015625
sg37
F-374.46868896484375
sg38
F9.0775426136507278
sg39
F21.766307427669705
sg40
F159.65022277832031
sg41
I00
sg42
F10.027666016020861
sg43
F90
sg44
(F3.6819140911102295
F-0.72116422653198242
F1.4027560949325562
tp158
sg46
F-3.8599999999999999
sg19
F2.7372142935778987
sg47
F1
sg48
F257.1522216796875
sg49
F1
sg50
I0
sg51
Nsg52
Nsg53
Nsg54
F-1.7181593406918849
sg55
F0.26238169497888469
sg56
F0.73859330666309397
sg57
F2.2356865721299375e-14
sg58
F7390739.6342738355
sg59
Nsba(ipulsar
Pulsar
p159
(dp160
g7
Nsg29
I0
sg30
Nsg31
Nsg32
I00
sg33
F2349054492073.0127
sg34
F-42.272281608293383
sg35
F0.15614846342365205
sg36
F-74.4696044921875
sg37
F122.01390838623047
sg38
F2.7297663202292828
sg39
F-65.752762258511098
sg40
F-47.314201354980469
sg41
I00
sg42
F3.7473369422782561
sg43
F90
sg44
(F-2.5282495021820068
F7.3612532615661621
F-2.5206634998321533
tp161
sg46
F-3.8599999999999999
sg19
F2.6695495049558113
sg47
F1
sg48
F43.387016296386719
sg49
F1
sg50
I0
sg51
Nsg52
Nsg53
Nsg54
F-1.8061571100239675
sg55
F0.15613367963884606
sg56
F0.6435406487405384
sg57
F2.751593282096782e-15
sg58
F18671313.298182946
sg59
Nsba(ipulsar
Pulsar
p162
(dp163
g7
Nsg29
I0
sg30
Nsg31
Nsg32
I00
sg33
F233395277907.15598
sg34
F15.951490906972506
sg35
F0.005581442446225689
sg36
F97.615325927734375
sg37
F-205.8765869140625
sg38
F1.1371454436215531
sg39
F29.514625669684957
sg40
F38.166126251220703
sg41
I00
sg42
F8.1367914474080116
sg43
F90
sg44
(F3.8542048931121826
F1.6917715072631836
F2.2361807823181152
tp164
sg46
F-3.8599999999999999
sg19
F2.9427085688424079
sg47
F1
sg48
F119.11900329589844
sg49
F1
sg50
I0
sg51
Nsg52
Nsg53
Nsg54
F-1.3780252581597034
sg55
F0.42885495453625466
sg56
F4.5261047021892882
sg57
F4.7138042644723505e-17
sg58
F334315286.32616633
sg59
Nsba(ipulsar
Pulsar
p165
(dp166
g7
Nsg29
I0
sg30
Nsg31
Nsg32
I00
sg33
F553206554668.31128
sg34
F-0.38982914809635383
sg35
F0.14001958731654787
sg36
F-24.684202194213867
sg37
F-286.22100830078125
sg38
F1.1074131967246637
sg39
F6.9703154768862996
sg40
F-203.8231201171875
sg41
I00
sg42
F7.9506686711152037
sg43
F90
sg44
(F0.96483182907104492
F0.6082761287689209
F-0.054094359278678894
tp167
sg46
F-3.8599999999999999
sg19
F2.9192513041732719
sg47
F1
sg48
F608.9140625
sg49
F1
sg50
I0
sg51
Nsg52
Nsg53
Nsg54
F-1.5675284798038369
sg55
F0.38469712432438574
sg56
F0.64370802739758959
sg57
F2.7217519380068707e-16
sg58
F58349795.875714652
sg59
Nsba(ipulsar
Pulsar
p168
(dp169
g7
Nsg29
I0
sg30
Nsg31
Nsg32
I00
sg33
F644897342615.08911
sg34
F-29.593645361884526
sg35
F0.037581263975585748
sg36
F298.75201416015625
sg37
F-390.16668701171875
sg38
F1.9244802428804622
sg39
F68.778119451206777
sg40
F-211.5458984375
sg41
I01
sg42
F63.704794285346026
sg43
F90
sg44
(F51.637943267822266
F-11.551728248596191
F-31.460321426391602
tp170
sg46
F-3.8599999999999999
sg19
F2.6447056545661649
sg47
F1
sg48
F49.709865570068359
sg49
F1
sg50
I0
sg51
Nsg52
Nsg53
Nsg54
F-1.5760824764729131
sg55
F0.25296248251354075
sg56
F13.145384817438778
sg57
F2.6637185330133426e-16
sg58
F134255312.97591454
sg59
Nsba(ipulsar
Pulsar
p171
(dp172
g7
Nsg29
I0
sg30
Nsg31
Nsg32
I00
sg33
F406216301561.8208
sg34
F-7.0355671564960369
sg35
F5.1752010124925869
sg36
F171.10397338867188
sg37
F179.04550170898438
sg38
F0.43819336740637627
sg39
F-41.839655044393091
sg40
F-441.2957763671875
sg41
I00
sg42
F14.791598159260138
sg43
F90
sg44
(F-9.7924165725708008
F-2.4369783401489258
F-1.8117556571960449
tp173
sg46
F-3.8599999999999999
sg19
F2.8935589437588187
sg47
F1
sg48
F306.22750854492188
sg49
F1
sg50
I0
sg51
Nsg52
Nsg53
Nsg54
F-1.2693240458812338
sg55
F0.39409322994284068
sg56
F11.209631391858309
sg57
F3.3690935946136154e-16
sg58
F3960746.2576334295
sg59
Nsba(ipulsar
Pulsar
p174
(dp175
g7
Nsg29
I0
sg30
Nsg31
Nsg32
I00
sg33
F432730984125.33972
sg34
F-27.615148987280445
sg35
F0.92029200234465935
sg36
F-42.855030059814453
sg37
F-160.71041870117188
sg38
F1.0619978371308243
sg39
F-2.5225457944274257
sg40
F-92.82989501953125
sg41
I00
sg42
F6.6549278412766411
sg43
F90
sg44
(F-0.25953319668769836
F2.6089086532592773
F-3.0847609043121338
tp176
sg46
F-3.8599999999999999
sg19
F2.7813820279648644
sg47
F1
sg48
F74.348503112792969
sg49
F1
sg50
I0
sg51
Nsg52
Nsg53
Nsg54
F-1.6755253530105576
sg55
F0.018402531394432764
sg56
F5.5066954609197696
sg57
F1.7451352822716565e-16
sg58
F108174911.3810928
sg59
Nsba(ipulsar
Pulsar
p177
(dp178
g7
Nsg29
I0
sg30
Nsg31
Nsg32
I00
sg33
F1949905739040.8701
sg34
F-12.289084386884792
sg35
F0.048929320397513264
sg36
F-102.33908843994141
sg37
F-560.86541748046875
sg38
F3.2407461245327793
sg39
F8.5425455591217521
sg40
F-41.41131591796875
sg41
I00
sg42
F19.556085725806945
sg43
F90
sg44
(F2.8383715152740479
F-10.395993232727051
F-4.1624002456665039
tp179
sg46
F-3.8599999999999999
sg19
F2.6445870751477458
sg47
F1
sg48
F183.38497924804688
sg49
F1
sg50
I0
sg51
Nsg52
Nsg53
Nsg54
F-1.0181804742513743
sg55
F0.11795132807334963
sg56
F6.0228912213013617
sg57
F1.7405147669896564e-15
sg58
F35722703.126793928
sg59
Nsba(ipulsar
Pulsar
p180
(dp181
g7
Nsg29
I0
sg30
Nsg31
Nsg32
I00
sg33
F1309627913545.2463
sg34
F-16.645325079884497
sg35
F0.589907974783068
sg36
F21.625823974609375
sg37
F1.7849522829055786
sg38
F1.204216631932385
sg39
F-27.778995800442701
sg40
F-120.67794036865234
sg41
I00
sg42
F8.0296946386002119
sg43
F90
sg44
(F-3.5855202674865723
F1.6934086084365845
F-2.300076961517334
tp182
sg46
F-3.8599999999999999
sg19
F2.8897371347553653
sg47
F1
sg48
F132.2064208984375
sg49
F1
sg50
I0
sg51
Nsg52
Nsg53
Nsg54
F-1.4707024681689573
sg55
F0.34565213195817746
sg56
F3.3917885054290244
sg57
F1.4200237196524897e-15
sg58
F12875975.029020492
sg59
Nsba(ipulsar
Pulsar
p183
(dp184
g7
Nsg29
I0
sg30
Nsg31
Nsg32
I00
sg33
F181558094596.40802
sg34
F45.40336183393066
sg35
F0.40889618147722684
sg36
F-25.572544097900391
sg37
F-203.26028442382812
sg38
F0.58436298358037342
sg39
F-32.79520439200482
sg40
F-11.453540802001953
sg41
I01
sg42
F22.838404556915467
sg43
F90
sg44
(F-8.6852178573608398
F-4.9792976379394531
F16.262479782104492
tp185
sg46
F-3.8599999999999999
sg19
F2.9133806455711619
sg47
F1
sg48
F37.284175872802734
sg49
F1
sg50
I0
sg51
Nsg52
Nsg53
Nsg54
F-1.6231880945739943
sg55
F0.28885566603467117
sg56
F1.4928766642357341
sg57
F5.2594991787619673e-17
sg58
F136219656.30984211
sg59
Nsba(ipulsar
Pulsar
p186
(dp187
g7
Nsg29
I0
sg30
Nsg31
Nsg32
I00
sg33
F70518904088.890778
sg34
F-8.7626563642159354
sg35
F0.062629819950956289
sg36
F2.7315540313720703
sg37
F-161.41838073730469
sg38
F0.5178176006088181
sg39
F-34.372609063063493
sg40
F10.033297538757324
sg41
I00
sg42
F29.307982086229455
sg43
F90
sg44
(F-16.353347778320312
F-15.40797233581543
F-4.4648280143737793
tp188
sg46
F-3.8599999999999999
sg19
F2.8539506148541451
sg47
F1
sg48
F270.3409423828125
sg49
F1
sg50
I0
sg51
Nsg52
Nsg53
Nsg54
F-1.7909376350923181
sg55
F0.16670977987761382
sg56
F2.2171471345952387
sg57
F8.5210997714058884e-18
sg58
F911655163.89319158
sg59
Nsba(ipulsar
Pulsar
p189
(dp190
g7
Nsg29
I0
sg30
Nsg31
Nsg32
I00
sg33
F169464253450.4791
sg34
F-0.4987502549931353
sg35
F0.011475784797201481
sg36
F25.155864715576172
sg37
F-327.7852783203125
sg38
F0.73439913146674851
sg39
F31.259269839446915
sg40
F-12.939476013183594
sg41
I00
sg42
F43.924071690141275
sg43
F90
sg44
(F22.791845321655273
F-29.046100616455078
F-0.38234692811965942
tp191
sg46
F-3.8599999999999999
sg19
F2.6877613679999612
sg47
F1
sg48
F1276.687744140625
sg49
F1
sg50
I0
sg51
Nsg52
Nsg53
Nsg54
F-1.4239493827735084
sg55
F0.49740420376727956
sg56
F4.0323991410679803
sg57
F3.4687143834774209e-17
sg58
F191574580.82334366
sg59
Nsba(ipulsar
Pulsar
p192
(dp193
g7
Nsg29
I0
sg30
Nsg31
Nsg32
I00
sg33
F96708904163.569107
sg34
F-3.6391606728649979
sg35
F0.28323841295835855
sg36
F-241.22052001953125
sg37
F-203.40299987792969
sg38
F0.45720822031914699
sg39
F-0.57681400567755781
sg40
F63.059131622314453
sg41
I00
sg42
F9.1696924117000354
sg43
F90
sg44
(F-0.092126376926898956
F-0.65073871612548828
F-0.58202457427978516
tp194
sg46
F-3.8599999999999999
sg19
F2.6831484535379415
sg47
F1
sg48
F403.86618041992188
sg49
F1
sg50
I0
sg51
Nsg52
Nsg53
Nsg54
F-1.5690879263521031
sg55
F0.045277399072207958
sg56
F0.78507027057297041
sg57
F1.5593052820228507e-17
sg58
F540770351.71017349
sg59
Nsba(ipulsar
Pulsar
p195
(dp196
g7
Nsg29
I0
sg30
Nsg31
Nsg32
I00
sg33
F674215166196.61975
sg34
F-70.958782192032984
sg35
F0.0067228488936781567
sg36
F-237.57060241699219
sg37
F-424.75054931640625
sg38
F1.7808172387435059
sg39
F0.64897945777299682
sg40
F-126.37291717529297
sg41
I00
sg42
F20.645187338756717
sg43
F90
sg44
(F0.076289728283882141
F1.7649755477905273
F-19.515567779541016
tp197
sg46
F-3.8599999999999999
sg19
F2.9346274817270608
sg47
F1
sg48
F30.786890029907227
sg49
F1
sg50
I0
sg51
Nsg52
Nsg53
Nsg54
F-1.1328841909720897
sg55
F0.51244567288642939
sg56
F29.952700170254129
sg57
F2.5892080768831764e-16
sg58
F102537613.60081626
sg59
Nsba(ipulsar
Pulsar
p198
(dp199
g7
Nsg29
I0
sg30
Nsg31
Nsg32
I00
sg33
F2685184906248.4609
sg34
F-50.760685621282846
sg35
F0.027979066744129498
sg36
F-23.243267059326172
sg37
F-319.50643920898438
sg38
F4.1811527059494464
sg39
F56.553237127606728
sg40
F-230.62693786621094
sg41
I00
sg42
F10.886685051249801
sg43
F90
sg44
(F5.7460765838623047
F4.7044281959533691
F-8.4318532943725586
tp200
sg46
F-3.8599999999999999
sg19
F2.6749304314141797
sg47
F1
sg48
F35.877857208251953
sg49
F1
sg50
I0
sg51
Nsg52
Nsg53
Nsg54
F-0.99274611774380161
sg55
F0.46752806453491513
sg56
F8.6365029948185921
sg57
F2.6817756825091294e-15
sg58
F28745508.35447187
sg59
Nsba(ipulsar
Pulsar
p201
(dp202
g7
Nsg29
I0
sg30
Nsg31
Nsg32
I00
sg33
F978267399923.09216
sg34
F30.57111537756111
sg35
F0.19255443124266208
sg36
F-75.2498779296875
sg37
F-74.942512512207031
sg38
F2.3336679280045423
sg39
F-93.366701403848467
sg40
F85.863548278808594
sg41
I00
sg42
F20.480128899482327
sg43
F90
sg44
(F-17.602928161621094
F9.5355405807495117
F10.416345596313477
tp203
sg46
F-3.8599999999999999
sg19
F2.8729005863540631
sg47
F1
sg48
F56.096187591552734
sg49
F1
sg50
I0
sg51
Nsg52
Nsg53
Nsg54
F-1.4736392809396843
sg55
F0.39876653055432892
sg56
F6.094978710461695
sg57
F4.4612781788280256e-16
sg58
F85270725.132278398
sg59
Nsba(ipulsar
Pulsar
p204
(dp205
g7
Nsg29
I0
sg30
Nsg31
Nsg32
I00
sg33
F3145803850347.3984
sg34
F4.4495541704939416
sg35
F0.1035595502514087
sg36
F-7.7109909057617188
sg37
F-444.00735473632812
sg38
F3.2528800289646029
sg39
F115.03595205934873
sg40
F82.992073059082031
sg41
I01
sg42
F23.1074538081605
sg43
F90
sg44
(F20.873231887817383
F18.249298095703125
F1.792707085609436
tp206
sg46
F-3.8599999999999999
sg19
F2.6943475426135288
sg47
F1
sg48
F208.99983215332031
sg49
F1
sg50
I0
sg51
Nsg52
Nsg53
Nsg54
F-1.3964294198189859
sg55
F0.44551247528571836
sg56
F29.880270113865723
sg57
F4.261641090573218e-15
sg58
F13783921.080109173
sg59
Nsba(ipulsar
Pulsar
p207
(dp208
g7
Nsg29
I0
sg30
Nsg31
Nsg32
I00
sg33
F5125717808582.3701
sg34
F15.554288559891457
sg35
F0.1828471562318113
sg36
F-95.462028503417969
sg37
F9.3551425933837891
sg38
F4.7489780055997706
sg39
F-19.817881835946153
sg40
F308.77255249023438
sg41
I00
sg42
F16.267819037571609
sg43
F90
sg44
(F-5.3133158683776855
F-6.2438631057739258
F4.3622369766235352
tp209
sg46
F-3.8599999999999999
sg19
F2.9176360592537662
sg47
F1
sg48
F142.93992614746094
sg49
F1
sg50
I0
sg51
Nsg52
Nsg53
Nsg54
F-1.5821947065243327
sg55
F0.19258707767873368
sg56
F9.7476102523269326
sg57
F6.1438744706211287e-15
sg58
F12745776.480301064
sg59
Nsba(ipulsar
Pulsar
p210
(dp211
g7
Nsg29
I0
sg30
Nsg31
Nsg32
I00
sg33
F1916808328195.4475
sg34
F0.0040350474719970377
sg35
F0.093727190080842973
sg36
F381.52664184570312
sg37
F47.026149749755859
sg38
F1.2347245441749266
sg39
F1.4200918440739618
sg40
F12.476062774658203
sg41
I01
sg42
F8.3091747488146304
sg43
F90
sg44
(F0.20592412352561951
F0.19337734580039978
F0.00058517249999567866
tp212
sg46
F-3.8599999999999999
sg19
F2.5952185097564504
sg47
F1
sg48
F658.30975341796875
sg49
F1
sg50
I0
sg51
Nsg52
Nsg53
Nsg54
F-1.6127617993880283
sg55
F0.36560345972275299
sg56
F1.7427536150386147
sg57
F3.1656202758522071e-15
sg58
F6636322.8964972934
sg59
Nsba(ipulsar
Pulsar
p213
(dp214
g7
Nsg29
I0
sg30
Nsg31
Nsg32
I00
sg33
F7031884206687.125
sg34
F-2.2508366206124948
sg35
F0.26822113272378639
sg36
F-47.658462524414062
sg37
F160.59674072265625
sg38
F2.0254012694901049
sg39
F-5.4420087527295973
sg40
F77.182510375976562
sg41
I00
sg42
F9.1599169715093414
sg43
F90
sg44
(F-0.86804002523422241
F-0.61159509420394897
F-0.35975030064582825
tp215
sg46
F-3.8599999999999999
sg19
F2.8114847477793909
sg47
F1
sg48
F515.14324951171875
sg49
F1
sg50
I0
sg51
Nsg52
Nsg53
Nsg54
F-1.8748196291578549
sg55
F0.21956391613805082
sg56
F1.3438356193385892
sg57
F2.7240809399513925e-14
sg58
F1277418.3777797266
sg59
Nsba(ipulsar
Pulsar
p216
(dp217
g7
Nsg29
I0
sg30
Nsg31
Nsg32
I00
sg33
F2236707489749.9277
sg34
F3.8008836058883322
sg35
F0.36184647440954126
sg36
F45.415103912353516
sg37
F-97.6083984375
sg38
F1.6269801040373146
sg39
F-44.605554342349613
sg40
F162.12979125976562
sg41
I00
sg42
F17.014980855091125
sg43
F90
sg44
(F-11.922014236450195
F-3.587306022644043
F1.1279109716415405
tp218
sg46
F-3.8599999999999999
sg19
F2.6601021260470459
sg47
F1
sg48
F496.40304565429688
sg49
F1
sg50
I0
sg51
Nsg52
Nsg53
Nsg54
F-1.8241234996655189
sg55
F0.38460327511927611
sg56
F13.013697844472086
sg57
F3.5439710662337699e-15
sg58
F7963690.4247230021
sg59
Nsba(ipulsar
Pulsar
p219
(dp220
g7
Nsg29
I0
sg30
Nsg31
Nsg32
I00
sg33
F1517687608367.9153
sg34
F11.579737205866415
sg35
F0.26996248351882596
sg36
F-70.631439208984375
sg37
F-338.23556518554688
sg38
F2.507632552933146
sg39
F-8.8992005866500286
sg40
F114.73844146728516
sg41
I00
sg42
F11.134178422734843
sg43
F90
sg44
(F-1.6873619556427002
F-2.2762517929077148
F2.2349801063537598
tp221
sg46
F-3.8599999999999999
sg19
F2.9041052109354872
sg47
F1
sg48
F199.88929748535156
sg49
F1
sg50
I0
sg51
Nsg52
Nsg53
Nsg54
F-1.4104753195550912
sg55
F0.28219634939924371
sg56
F5.7458523617580335
sg57
F9.7992729725309327e-16
sg58
F41922734.574868061
sg59
Nsba(ipulsar
Pulsar
p222
(dp223
g7
Nsg29
I0
sg30
Nsg31
Nsg32
I00
sg33
F656990374830.66809
sg34
F31.018358619101825
sg35
F0.062727518860396028
sg36
F-401.48818969726562
sg37
F-337.27239990234375
sg38
F1.1449379078632116
sg39
F-56.682698066847728
sg40
F127.33015441894531
sg41
I00
sg42
F21.754866274952604
sg43
F90
sg44
(F-15.57967472076416
F-1.7406694889068604
F11.210558891296387
tp224
sg46
F-3.8599999999999999
sg19
F2.6971310321251907
sg47
F1
sg48
F61.367218017578125
sg49
F1
sg50
I0
sg51
Nsg52
Nsg53
Nsg54
F-1.7472312748538776
sg55
F0.14999686969794174
sg56
F8.9690091139180002
sg57
F3.8365861455520996e-16
sg58
F53952086.639193483
sg59
Nsba(ipulsar
Pulsar
p225
(dp226
g7
Nsg29
I0
sg30
Nsg31
Nsg32
I00
sg33
F192276171413.52597
sg34
F11.887471204024909
sg35
F0.0015372669784702658
sg36
F-195.83013916015625
sg37
F-273.52859497070312
sg38
F0.8348307592559423
sg39
F4.7828689681235401
sg40
F69.886741638183594
sg41
I00
sg42
F15.442088984558747
sg43
F90
sg44
(F1.2599468231201172
F-6.5583000183105469
F3.1809191703796387
tp227
sg46
F-3.8599999999999999
sg19
F2.9640690061090602
sg47
F1
sg48
F197.36448669433594
sg49
F1
sg50
I0
sg51
Nsg52
Nsg53
Nsg54
F-1.3948504397773744
sg55
F0.19376348093011414
sg56
F7.7260490723058695
sg57
F4.2977494620916866e-17
sg58
F295612415.14329118
sg59
Nsba(ipulsar
Pulsar
p228
(dp229
g7
Nsg29
I0
sg30
Nsg31
Nsg32
I00
sg33
F133307224795.71584
sg34
F-13.023738320639984
sg35
F0.085086166358706888
sg36
F-3.1339402198791504
sg37
F84.015739440917969
sg38
F0.75837929264640713
sg39
F-178.4200524346804
sg40
F-58.140975952148438
sg41
I00
sg42
F122.18665876579313
sg43
F90
sg44
(F-3.2822461128234863
F127.49836730957031
F-27.535341262817383
tp230
sg46
F-3.8599999999999999
sg19
F2.5615634454163403
sg47
F1
sg48
F109.29388427734375
sg49
F1
sg50
I0
sg51
Nsg52
Nsg53
Nsg54
F-1.8829519303005549
sg55
F0.49132933077412622
sg56
F1.6754271154329672
sg57
F2.0275164919567608e-17
sg58
F373663607.42570859
sg59
Nsba(ipulsar
Pulsar
p231
(dp232
g7
Nsg29
I0
sg30
Nsg31
Nsg32
I00
sg33
F1607833746904.2583
sg34
F-14.777033032236494
sg35
F0.067278605994855092
sg36
F-259.14892578125
sg37
F-383.78073120117188
sg38
F2.074666287006333
sg39
F-2.1362945910074882
sg40
F-317.40975952148438
sg41
I00
sg42
F31.0601754622035
sg43
F90
sg44
(F-1.1195278167724609
F-21.512008666992188
F-7.922152042388916
tp233
sg46
F-3.8599999999999999
sg19
F2.8047749600684519
sg47
F1
sg48
F158.20626831054688
sg49
F1
sg50
I0
sg51
Nsg52
Nsg53
Nsg54
F-1.2262369912403506
sg55
F0.17655222183741101
sg56
F17.714429599665653
sg57
F1.4035113064020744e-15
sg58
F25650568.392506011
sg59
Nsba(ipulsar
Pulsar
p234
(dp235
g7
Nsg29
I0
sg30
Nsg31
Nsg32
I00
sg33
F2364247319397.1592
sg34
F17.698947641424727
sg35
F0.0023677852415313325
sg36
F-243.63507080078125
sg37
F-82.487007141113281
sg38
F2.85840382559803
sg39
F-41.5320144777588
sg40
F193.77845764160156
sg41
I00
sg42
F16.853337120449485
sg43
F90
sg44
(F-10.645492553710938
F-3.5190014839172363
F5.1236767768859863
tp236
sg46
F-3.8599999999999999
sg19
F2.7756101896024381
sg47
F1
sg48
F121.54521942138672
sg49
F1
sg50
I0
sg51
Nsg52
Nsg53
Nsg54
F-2.175139494279231
sg55
F0.12421664625105786
sg56
F7.6806178131571459
sg57
F2.4177832343799189e-15
sg58
F21018581.340357278
sg59
Nsba(ipulsar
Pulsar
p237
(dp238
g7
Nsg29
I0
sg30
Nsg31
Nsg32
I00
sg33
F492171429560.32727
sg34
F25.47456957777419
sg35
F0.14403531498326838
sg36
F-27.299819946289062
sg37
F-377.04647827148438
sg38
F1.4333401507073422
sg39
F46.446064813978261
sg40
F57.655784606933594
sg41
I00
sg42
F29.760953610583705
sg43
F90
sg44
(F19.471565246582031
F-10.012692451477051
F12.800497055053711
tp239
sg46
F-3.8599999999999999
sg19
F2.9757727745588523
sg47
F1
sg48
F62.43890380859375
sg49
F1
sg50
I0
sg51
Nsg52
Nsg53
Nsg54
F-1.7233217682929232
sg55
F0.22818913786786021
sg56
F17.841455967021389
sg57
F1.6652409886439464e-16
sg58
F134393213.83991119
sg59
Nsba(ipulsar
Pulsar
p240
(dp241
g7
Nsg29
I0
sg30
Nsg31
Nsg32
I00
sg33
F100312703560.69543
sg34
F-1.208761748484529
sg35
F0.011731709361669193
sg36
F-159.0032958984375
sg37
F-555.23089599609375
sg38
F0.65223193078861719
sg39
F2.3406768306832997
sg40
F28.239604949951172
sg41
I00
sg42
F8.3205741171545338
sg43
F90
sg44
(F0.33974623680114746
F0.18821817636489868
F-0.17552506923675537
tp242
sg46
F-3.8599999999999999
sg19
F2.5954032481074916
sg47
F1
sg48
F559.09716796875
sg49
F1
sg50
I0
sg51
Nsg52
Nsg53
Nsg54
F-2.0829335684150476
sg55
F0.52138215570266633
sg56
F0.33451454252551732
sg57
F1.2677194109467879e-17
sg58
F306976565.39193565
sg59
Nsba(ipulsar
Pulsar
p243
(dp244
g7
Nsg29
I0
sg30
Nsg31
Nsg32
I00
sg33
F325321612856.38934
sg34
F1.842113125245439
sg35
F0.069639257104192942
sg36
F236.47509765625
sg37
F-251.33245849609375
sg38
F0.62225518671303026
sg39
F-21.155727166188871
sg40
F110.34849548339844
sg41
I00
sg42
F8.7886783398466779
sg43
F90
sg44
(F-3.1702303886413574
F0.30788847804069519
F0.28251558542251587
tp245
sg46
F-3.8599999999999999
sg19
F2.7789806152311307
sg47
F1
sg48
F572.54931640625
sg49
F1
sg50
I0
sg51
Nsg52
Nsg53
Nsg54
F-1.0940733576890627
sg55
F0.098487894408347515
sg56
F2.3848620319421965
sg57
F1.4959807645149927e-16
sg58
F71303308.158232152
sg59
Nsba(ipulsar
Pulsar
p246
(dp247
g7
Nsg29
I0
sg30
Nsg31
Nsg32
I00
sg33
F1673847246158.6953
sg34
F-3.3925302380207416
sg35
F0.12294348905611079
sg36
F-43.194355010986328
sg37
F-172.72288513183594
sg38
F2.0390227517100294
sg39
F-21.12993371297463
sg40
F-24.891664505004883
sg41
I00
sg42
F15.685038737618997
sg43
F90
sg44
(F-5.6442995071411133
F-6.1048212051391602
F-0.92818146944046021
tp248
sg46
F-3.8599999999999999
sg19
F2.5357562534845841
sg47
F1
sg48
F595.49261474609375
sg49
F1
sg50
I0
sg51
Nsg52
Nsg53
Nsg54
F-1.4767066439467429
sg55
F0.4801628489002292
sg56
F7.3328246802041273
sg57
F1.8683682791708902e-15
sg58
F20075045.352725085
sg59
Nsba(ipulsar
Pulsar
p249
(dp250
g7
Nsg29
I0
sg30
Nsg31
Nsg32
I00
sg33
F337933174117.57745
sg34
F3.7523739517754429
sg35
F0.25433917123147548
sg36
F387.61865234375
sg37
F-554.54339599609375
sg38
F1.0659933223320321
sg39
F47.703077580469802
sg40
F26.744382858276367
sg41
I00
sg42
F96.538409819311042
sg43
F90
sg44
(F71.253219604492188
F-56.328445434570312
F6.3179054260253906
tp251
sg46
F-3.8599999999999999
sg19
F2.8531524155684509
sg47
F1
sg48
F404.775146484375
sg49
F1
sg50
I0
sg51
Nsg52
Nsg53
Nsg54
F-2.7849014700812393
sg55
F0.21314525473860513
sg56
F2.8795483733859322
sg57
F1.0563029698547925e-16
sg58
F163829113.5128006
sg59
Nsba(ipulsar
Pulsar
p252
(dp253
g7
Nsg29
I0
sg30
Nsg31
Nsg32
I00
sg33
F388933467356.95575
sg34
F7.5258221083327275
sg35
F0.042714264279413362
sg36
F-30.728164672851562
sg37
F-26.512273788452148
sg38
F1.4015852688088466
sg39
F24.280521688774744
sg40
F-21.664264678955078
sg41
I00
sg42
F18.054613274117255
sg43
F90
sg44
(F7.3601861000061035
F-7.8157920837402344
F2.3646669387817383
tp254
sg46
F-3.8599999999999999
sg19
F2.9272379504456199
sg47
F1
sg48
F298.97793579101562
sg49
F1
sg50
I0
sg51
Nsg52
Nsg53
Nsg54
F-2.2325726156097483
sg55
F0.39754461240326094
sg56
F3.5289209416464651
sg57
F1.0804510466651555e-16
sg58
F194489321.8992897
sg59
Nsba(ipulsar
Pulsar
p255
(dp256
g7
Nsg29
I0
sg30
Nsg31
Nsg32
I00
sg33
F350238503889.07532
sg34
F-6.5874881837528481
sg35
F0.34059057084241862
sg36
F-9.7888641357421875
sg37
F-169.59391784667969
sg38
F1.208709524563865
sg39
F9.757822908393587
sg40
F202.51614379882812
sg41
I00
sg42
F6.5584652790774198
sg43
F90
sg44
(F1.1042166948318481
F2.0790901184082031
F-0.752388596534729
tp257
sg46
F-3.8599999999999999
sg19
F2.5020108292473089
sg47
F1
sg48
F227.18310546875
sg49
F1
sg50
I0
sg51
Nsg52
Nsg53
Nsg54
F-1.6990812697564344
sg55
F0.39434239284608302
sg56
F2.3287091455605275
sg57
F1.0894490424581911e-16
sg58
F190550220.50173298
sg59
Nsba(ipulsar
Pulsar
p258
(dp259
g7
Nsg29
I0
sg30
Nsg31
Nsg32
I00
sg33
F124433417618.12689
sg34
F44.920885772334863
sg35
F0.007915882961139346
sg36
F91.510696411132812
sg37
F-298.62701416015625
sg38
F0.64591625180090217
sg39
F63.411118512286556
sg40
F40.015911102294922
sg41
I00
sg42
F6.956358741852549
sg43
F90
sg44
(F4.4047417640686035
F6.2953386306762695
F4.9120917320251465
tp260
sg46
F-3.8599999999999999
sg19
F2.8846290490117679
sg47
F1
sg48
F34.064800262451172
sg49
F1
sg50
I0
sg51
Nsg52
Nsg53
Nsg54
F-1.3770943193831975
sg55
F0.49087103135564014
sg56
F3.8480787985882303
sg57
F2.2264007869656501e-17
sg58
F197016300.38435835
sg59
Nsba(ipulsar
Pulsar
p261
(dp262
g7
Nsg29
I0
sg30
Nsg31
Nsg32
I00
sg33
F2454354885129.3037
sg34
F-0.67886720715429427
sg35
F0.017579958003081528
sg36
F260.2666015625
sg37
F-382.14602661132812
sg38
F2.7984097108861339
sg39
F27.674225612788454
sg40
F-8.8755788803100586
sg41
I00
sg42
F16.621892216858466
sg43
F90
sg44
(F7.7193913459777832
F-6.2193584442138672
F-0.19693934917449951
tp263
sg46
F-3.8599999999999999
sg19
F2.6091802242732745
sg47
F1
sg48
F1204.5780029296875
sg49
F1
sg50
I0
sg51
Nsg52
Nsg53
Nsg54
F-1.6368550333203813
sg55
F0.11848665122035412
sg56
F3.556909206597938
sg57
F3.1436257979468748e-15
sg58
F17421840.220564365
sg59
Nsba(ipulsar
Pulsar
p264
(dp265
g7
Nsg29
I0
sg30
Nsg31
Nsg32
I00
sg33
F1485797273509.8401
sg34
F10.995562835447238
sg35
F0.011816267062750361
sg36
F81.316749572753906
sg37
F-206.67112731933594
sg38
F2.2847228754580589
sg39
F-23.97968592670632
sg40
F24.676908493041992
sg41
I00
sg42
F14.702275589845913
sg43
F90
sg44
(F-5.8654990196228027
F-4.6867070198059082
F2.8042087554931641
tp266
sg46
F-3.8599999999999999
sg19
F2.9542183625224343
sg47
F1
sg48
F201.37120056152344
sg49
F1
sg50
I0
sg51
Nsg52
Nsg53
Nsg54
F-0.59079867039953182
sg55
F0.1797350570692855
sg56
F6.5452274376888013
sg57
F9.8021020946651622e-16
sg58
F37533307.760568954
sg59
Nsba(ipulsar
Pulsar
p267
(dp268
g7
Nsg29
I0
sg30
Nsg31
Nsg32
I00
sg33
F7112378298780.2539
sg34
F-1.3265152931437656
sg35
F0.020228304824818102
sg36
F172.78092956542969
sg37
F-580.6319580078125
sg38
F5.2698664291340691
sg39
F65.927435166728912
sg40
F-13.045332908630371
sg41
I00
sg42
F19.21987261753204
sg43
F90
sg44
(F17.543609619140625
F0.66244339942932129
F-0.44493988156318665
tp269
sg46
F-3.8599999999999999
sg19
F2.8210408135479206
sg47
F1
sg48
F442.4483642578125
sg49
F1
sg50
I0
sg51
Nsg52
Nsg53
Nsg54
F-1.5100526275754478
sg55
F0.0033641890749614989
sg56
F16.541917095842226
sg57
F1.2624332084911781e-14
sg58
F7264011.5190534256
sg59
Nsba(ipulsar
Pulsar
p270
(dp271
g7
Nsg29
I0
sg30
Nsg31
Nsg32
I00
sg33
F2852748297647.9731
sg34
F15.675390370375348
sg35
F0.11090624036111521
sg36
F-40.808170318603516
sg37
F62.515254974365234
sg38
F3.1369629210694692
sg39
F-50.99526671250247
sg40
F186.46115112304688
sg41
I00
sg42
F12.825552995122314
sg43
F90
sg44
(F-9.5959787368774414
F0.72801697254180908
F3.465296745300293
tp272
sg46
F-3.8599999999999999
sg19
F2.6843254338342644
sg47
F1
sg48
F136.08477783203125
sg49
F1
sg50
I0
sg51
Nsg52
Nsg53
Nsg54
F-1.8680858499173236
sg55
F0.54328681779450372
sg56
F9.2003231092056428
sg57
F3.6354532159823611e-15
sg58
F15387249.965489792
sg59
Nsba(ipulsar
Pulsar
p273
(dp274
g7
Nsg29
I0
sg30
Nsg31
Nsg32
I00
sg33
F1024013203738.4227
sg34
F-27.532591869774542
sg35
F0.012805376735516561
sg36
F-83.834381103515625
sg37
F-46.373157501220703
sg38
F1.53551409187179
sg39
F-82.482680632571416
sg40
F-40.370082855224609
sg41
I00
sg42
F7.4184589426363541
sg43
F90
sg44
(F-6.5217657089233398
F7.6393876075744629
F-3.4292056560516357
tp275
sg46
F-3.8599999999999999
sg19
F2.8171357873254399
sg47
F1
sg48
F62.032455444335938
sg49
F1
sg50
I0
sg51
Nsg52
Nsg53
Nsg54
F-1.7112612899732542
sg55
F0.31450963288949274
sg56
F1.1119196928107584
sg57
F7.2147637277485403e-16
sg58
F35034225.373889446
sg59
Nsba(ipulsar
Pulsar
p276
(dp277
g7
Nsg29
I0
sg30
Nsg31
Nsg32
I00
sg33
F351357417873.3175
sg34
F-16.79348878875788
sg35
F0.11401552759841514
sg36
F-40.390487670898438
sg37
F55.945369720458984
sg38
F1.3789923855093182
sg39
F-166.97744860365822
sg40
F-63.513694763183594
sg41
I00
sg42
F81.874465577593156
sg43
F90
sg44
(F-17.662332534790039
F84.8668212890625
F-23.655416488647461
tp278
sg46
F-3.8599999999999999
sg19
F2.6291468091911887
sg47
F1
sg48
F87.313186645507812
sg49
F1
sg50
I0
sg51
Nsg52
Nsg53
Nsg54
F-0.67446914898613075
sg55
F0.092788431765820495
sg56
F3.0729890430457787
sg57
F9.8514237570375932e-17
sg58
F268921539.75753039
sg59
Nsba(ipulsar
Pulsar
p279
(dp280
g7
Nsg29
I0
sg30
Nsg31
Nsg32
I00
sg33
F589661824455.02258
sg34
F4.4107408910803132
sg35
F0.6050345544627469
sg36
F-67.986282348632812
sg37
F-535.99951171875
sg38
F0.48800054458459974
sg39
F51.654271339658045
sg40
F78.027915954589844
sg41
I01
sg42
F7.3821620161899606
sg43
F90
sg44
(F5.7725458145141602
F3.9336326122283936
F0.56773209571838379
tp281
sg46
F-3.8599999999999999
sg19
F2.6930985577502291
sg47
F1
sg48
F202.77787780761719
sg49
F1
sg50
I0
sg51
Nsg52
Nsg53
Nsg54
F-1.2559950652854159
sg55
F0.30474460006802523
sg56
F9.0886376215288305
sg57
F5.5842790317357063e-16
sg58
F8986031.4676640797
sg59
Nsba(ipulsar
Pulsar
p282
(dp283
g7
Nsg29
I0
sg30
Nsg31
Nsg32
I00
sg33
F276954198970.8786
sg34
F24.764083248957121
sg35
F0.0052096935457135876
sg36
F-123.04499816894531
sg37
F-107.6658935546875
sg38
F1.1978358870515269
sg39
F-119.28776766090849
sg40
F70.146469116210938
sg41
I00
sg42
F72.487922606658429
sg43
F90
sg44
(F-57.408176422119141
F40.699851989746094
F30.363954544067383
tp284
sg46
F-3.8599999999999999
sg19
F2.731838533159523
sg47
F1
sg48
F62.369503021240234
sg49
F1
sg50
I0
sg51
Nsg52
Nsg53
Nsg54
F-0.85680681559741589
sg55
F0.20212454805009034
sg56
F3.8514138875567765
sg57
F6.5651912038952566e-17
sg58
F318528892.86953688
sg59
Nsba(ipulsar
Pulsar
p285
(dp286
g7
Nsg29
I0
sg30
Nsg31
Nsg32
I00
sg33
F397428263879.23639
sg34
F4.2419679358180948
sg35
F1.543771606961458
sg36
F27.716091156005859
sg37
F231.97219848632812
sg38
F0.37949613712379571
sg39
F-37.379836112524778
sg40
F56.308563232421875
sg41
I00
sg42
F9.4033380479069724
sg43
F90
sg44
(F-5.6930923461914062
F1.0483107566833496
F0.69555258750915527
tp287
sg46
F-3.8599999999999999
sg19
F2.5765953696563675
sg47
F1
sg48
F373.0076904296875
sg49
F1
sg50
I0
sg51
Nsg52
Nsg53
Nsg54
F-1.8789879381058037
sg55
F0.28794857671040086
sg56
F6.5943938560509645
sg57
F2.6974303405179956e-16
sg58
F9978880.05518388
sg59
Nsba(ipulsar
Pulsar
p288
(dp289
g7
Nsg29
I0
sg30
Nsg31
Nsg32
I00
sg33
F333951251031.67676
sg34
F6.1550415405505516
sg35
F1.0593269581713456
sg36
F-82.660263061523438
sg37
F-215.10865783691406
sg38
F0.36427085813660931
sg39
F105.09224208232736
sg40
F105.74040222167969
sg41
I00
sg42
F12.367716916633963
sg43
F90
sg44
(F11.872292518615723
F11.701665878295898
F1.3260571956634521
tp290
sg46
F-3.8599999999999999
sg19
F2.5149205601207303
sg47
F1
sg48
F189.32905578613281
sg49
F1
sg50
I0
sg51
Nsg52
Nsg53
Nsg54
F-1.6869154604498997
sg55
F0.33683272379835028
sg56
F16.907820835363836
sg57
F1.832328679330414e-16
sg58
F4652049.0768082738
sg59
Nsba(ipulsar
Pulsar
p291
(dp292
g7
Nsg29
I0
sg30
Nsg31
Nsg32
I00
sg33
F130139598101.36032
sg34
F-26.323800697189945
sg35
F0.2441235999300623
sg36
F-74.637443542480469
sg37
F-200.97386169433594
sg38
F0.64833041190714968
sg39
F-69.691222722006202
sg40
F-8.8426685333251953
sg41
I00
sg42
F25.67641710143873
sg43
F90
sg44
(F-21.583194732666016
F0.51237481832504272
F-11.386041641235352
tp293
sg46
F-3.8599999999999999
sg19
F2.5897487612039014
sg47
F1
sg48
F69.498039245605469
sg49
F1
sg50
I0
sg51
Nsg52
Nsg53
Nsg54
F-1.7665855383567159
sg55
F0.12501109064360064
sg56
F5.2241991296679267
sg57
F2.1360795233479062e-17
sg58
F560810705.00965261
sg59
Nsba(ipulsar
Pulsar
p294
(dp295
g7
Nsg29
I0
sg30
Nsg31
Nsg32
I00
sg33
F1035743056135.9833
sg34
F3.2265123462125458
sg35
F0.13520232663806919
sg36
F265.47042846679688
sg37
F-292.92434692382812
sg38
F1.1748073888534636
sg39
F66.92791087609632
sg40
F5.9804348945617676
sg41
I00
sg42
F7.1678085316833959
sg43
F90
sg44
(F6.5840201377868652
F5.695467472076416
F0.40342938899993896
tp296
sg46
F-3.8599999999999999
sg19
F2.7296904339977042
sg47
F1
sg48
F182.19221496582031
sg49
F1
sg50
I0
sg51
Nsg52
Nsg53
Nsg54
F-1.199349321461703
sg55
F0.076697414548358156
sg56
F5.9385193349416756
sg57
F9.316562512973156e-16
sg58
F22896035.37547591
sg59
Nsba(ipulsar
Pulsar
p297
(dp298
g7
Nsg29
I0
sg30
Nsg31
Nsg32
I00
sg33
F1986972305228.6094
sg34
F-1.7688756046306566
sg35
F0.057815152136521865
sg36
F-207.50917053222656
sg37
F-501.525390625
sg38
F2.7037399754198468
sg39
F31.497389596537971
sg40
F-25.605621337890625
sg41
I00
sg42
F17.83813633293088
sg43
F90
sg44
(F9.3152666091918945
F-6.7026882171630859
F-0.55062401294708252
tp299
sg46
F-3.8599999999999999
sg19
F2.5263454604429283
sg47
F1
sg48
F754.53533935546875
sg49
F1
sg50
I0
sg51
Nsg52
Nsg53
Nsg54
F-2.1145616220396262
sg55
F0.29357442072823814
sg56
F13.370238135165881
sg57
F2.2846859071909708e-15
sg58
F23740092.5487401
sg59
Nsba(ipulsar
Pulsar
p300
(dp301
g7
Nsg29
I0
sg30
Nsg31
Nsg32
I00
sg33
F187870381129.01562
sg34
F-15.857854720360086
sg35
F0.027601454073913408
sg36
F332.39053344726562
sg37
F-227.01429748535156
sg38
F0.99296913384582552
sg39
F86.726729346712858
sg40
F-94.59710693359375
sg41
I00
sg42
F185.21750343250363
sg43
F90
sg44
(F177.8779296875
F-1.6731204986572266
F-50.611000061035156
tp302
sg46
F-3.8599999999999999
sg19
F2.6211496351281403
sg47
F1
sg48
F85.130470275878906
sg49
F1
sg50
I0
sg51
Nsg52
Nsg53
Nsg54
F-1.4178669440852889
sg55
F0.28002717029752155
sg56
F0.75429821556095422
sg57
F3.4627859146107163e-17
sg58
F488512634.35885119
sg59
Nsba(ipulsar
Pulsar
p303
(dp304
g7
Nsg29
I0
sg30
Nsg31
Nsg32
I00
sg33
F321192927451.07495
sg34
F-11.516783868637871
sg35
F0.060935967818976089
sg36
F334.57940673828125
sg37
F-414.70651245117188
sg38
F0.64026825107691532
sg39
F52.537741571437394
sg40
F-88.629013061523438
sg41
I00
sg42
F26.490360284004463
sg43
F90
sg44
(F20.603485107421875
F-7.2880582809448242
F-5.2889323234558105
tp305
sg46
F-3.8599999999999999
sg19
F2.9709005643757407
sg47
F1
sg48
F140.65272521972656
sg49
F1
sg50
I0
sg51
Nsg52
Nsg53
Nsg54
F-1.187036074836588
sg55
F0.35150262809297933
sg56
F3.1163593852631069
sg57
F1.5536059428965345e-16
sg58
F45939278.655508623
sg59
Nsba(ipulsar
Pulsar
p306
(dp307
g7
Nsg29
I0
sg30
Nsg31
Nsg32
I00
sg33
F2796737536457.5508
sg34
F8.0617055698622284
sg35
F0.33243380420083557
sg36
F-174.5228271484375
sg37
F128.98471069335938
sg38
F2.8258490366188216
sg39
F-40.170011930451423
sg40
F64.466804504394531
sg41
I00
sg42
F12.348608714846788
sg43
F90
sg44
(F-7.886847972869873
F-0.8427385687828064
F1.7317627668380737
tp308
sg46
F-3.8599999999999999
sg19
F2.8878375224288
sg47
F1
sg48
F277.241943359375
sg49
F1
sg50
I0
sg51
Nsg52
Nsg53
Nsg54
F-1.6759271406905802
sg55
F0.40609985157809625
sg56
F7.5294646713028142
sg57
F3.0378204494646656e-15
sg58
F15213632.2535531
sg59
Nsba(ipulsar
Pulsar
p309
(dp310
g7
Nsg29
I0
sg30
Nsg31
Nsg32
I00
sg33
F309385843856.8241
sg34
F-16.172846185625808
sg35
F0.011118429728333924
sg36
F-292.7381591796875
sg37
F-320.01248168945312
sg38
F0.90675049885507264
sg39
F-58.311527615015557
sg40
F-102.3453369140625
sg41
I01
sg42
F57.505085820529132
sg43
F90
sg44
(F-46.995597839355469
F-20.512012481689453
F-16.017234802246094
tp311
sg46
F-3.8599999999999999
sg19
F2.9735362261476439
sg47
F1
sg48
F126.5960693359375
sg49
F1
sg50
I0
sg51
Nsg52
Nsg53
Nsg54
F-1.5988777881668035
sg55
F0.23280057947121313
sg56
F5.2517869566163373
sg57
F1.0284748863156165e-16
sg58
F131891314.53648129
sg59
Nsba(ipulsar
Pulsar
p312
(dp313
g7
Nsg29
I0
sg30
Nsg31
Nsg32
I00
sg33
F1336109093343.6653
sg34
F-14.742914662819928
sg35
F0.029562758321363684
sg36
F223.87832641601562
sg37
F-418.37051391601562
sg38
F1.6328194140294707
sg39
F32.835363264700881
sg40
F-18.67280387878418
sg41
I00
sg42
F8.6088667549748958
sg43
F90
sg44
(F4.5142779350280762
F1.5046975612640381
F-2.1908047199249268
tp314
sg46
F-3.8599999999999999
sg19
F2.7904390914859913
sg47
F1
sg48
F127.25640869140625
sg49
F1
sg50
I0
sg51
Nsg52
Nsg53
Nsg54
F-1.6631750219043369
sg55
F0.40269411825199097
sg56
F4.8234086260505551
sg57
F1.1835179477700108e-15
sg58
F22426422.934052724
sg59
Nsba(ipulsar
Pulsar
p315
(dp316
g7
Nsg29
I0
sg30
Nsg31
Nsg32
I00
sg33
F405610976464.50439
sg34
F5.8803990854964665
sg35
F0.30165841749738731
sg36
F235.09263610839844
sg37
F77.323875427246094
sg38
F0.62828979973774135
sg39
F76.806426670542649
sg40
F-94.588027954101562
sg41
I00
sg42
F4.8519094033793069
sg43
F90
sg44
(F4.6989836692810059
F7.3984193801879883
F0.49708899855613708
tp317
sg46
F-3.8599999999999999
sg19
F2.7894010031515641
sg47
F1
sg48
F99.846000671386719
sg49
F1
sg50
I0
sg51
Nsg52
Nsg53
Nsg54
F-1.9412569985117687
sg55
F0.36040773265499759
sg56
F5.4294003367954842
sg57
F2.3193043398268135e-16
sg58
F30227398.650051307
sg59
Nsba(ipulsar
Pulsar
p318
(dp319
g7
Nsg29
I0
sg30
Nsg31
Nsg32
I00
sg33
F10177028060927.65
sg34
F2.5367092129830779
sg35
F0.036380842396213038
sg36
F-75.53192138671875
sg37
F-216.89326477050781
sg38
F3.3404092045422318
sg39
F-11.337834295635059
sg40
F228.47856140136719
sg41
I00
sg42
F12.857232760893334
sg43
F90
sg44
(F-2.5251731872558594
F-4.0939712524414062
F0.5690542459487915
tp320
sg46
F-3.8599999999999999
sg19
F2.9218041765556957
sg47
F1
sg48
F633.00726318359375
sg49
F1
sg50
I0
sg51
Nsg52
Nsg53
Nsg54
F-2.2307565240157992
sg55
F0.22718542259035579
sg56
F4.7376900521974639
sg57
F3.3281804857201378e-14
sg58
F1645521.2000123786
sg59
Nsba(ipulsar
Pulsar
p321
(dp322
g7
Nsg29
I0
sg30
Nsg31
Nsg32
I00
sg33
F107778865925.03688
sg34
F-2.0524398221809164
sg35
F0.01787968759908538
sg36
F-203.32473754882812
sg37
F-619.83349609375
sg38
F0.55216499946379027
sg39
F-9.4462479304503386
sg40
F20.903093338012695
sg41
I01
sg42
F24.320835054189299
sg43
F90
sg44
(F-3.9890294075012207
F-15.475653648376465
F-0.87103056907653809
tp323
sg46
F-3.8599999999999999
sg19
F2.9736192175596541
sg47
F1
sg48
F913.85308837890625
sg49
F1
sg50
I0
sg51
Nsg52
Nsg53
Nsg54
F-1.8000722988116857
sg55
F0.52535176227229052
sg56
F6.0853751867862371
sg57
F2.0230171798345185e-17
sg58
F41007280.560667045
sg59
Nsba(ipulsar
Pulsar
p324
(dp325
g7
Nsg29
I0
sg30
Nsg31
Nsg32
I00
sg33
F1768905643521.0735
sg34
F1.5552171085326125
sg35
F0.16639970007416346
sg36
F149.96537780761719
sg37
F-210.09637451171875
sg38
F2.0727518241134812
sg39
F49.246243521715989
sg40
F-26.018644332885742
sg41
I01
sg42
F17.18745495282333
sg43
F90
sg44
(F13.015082359313965
F-2.7159993648529053
F0.46647313237190247
tp326
sg46
F-3.8599999999999999
sg19
F2.5374857710899912
sg47
F1
sg48
F533.7633056640625
sg49
F1
sg50
I0
sg51
Nsg52
Nsg53
Nsg54
F-1.6356212412732332
sg55
F0.21742782300992289
sg56
F9.6343884226342169
sg57
F2.0657383543883628e-15
sg58
F20035092.250988096
sg59
Nsba(ipulsar
Pulsar
p327
(dp328
g7
Nsg29
I0
sg30
Nsg31
Nsg32
I00
sg33
F2084055423691.0251
sg34
F0.84377031806048231
sg35
F0.054004324483168623
sg36
F-106.47667694091797
sg37
F-296.384521484375
sg38
F2.6505292910881346
sg39
F11.967919837476314
sg40
F-14.920539855957031
sg41
I00
sg42
F14.557663405810271
sg43
F90
sg44
(F3.0184078216552734
F-5.7396917343139648
F0.21437670290470123
tp329
sg46
F-3.8599999999999999
sg19
F2.9927039914158526
sg47
F1
sg48
F1045.355712890625
sg49
F1
sg50
I0
sg51
Nsg52
Nsg53
Nsg54
F-1.5130183910260619
sg55
F0.52003556054191946
sg56
F4.4627206483691655
sg57
F1.6120563187682072e-15
sg58
F25128066.520395786
sg59
Nsba(ipulsar
Pulsar
p330
(dp331
g7
Nsg29
I0
sg30
Nsg31
Nsg32
I00
sg33
F175265334503.43298
sg34
F-10.752766129964989
sg35
F0.012272031993261979
sg36
F77.860282897949219
sg37
F-411.45242309570312
sg38
F0.95199634805295319
sg39
F27.782672070298108
sg40
F-30.439262390136719
sg41
I00
sg42
F106.71339006445083
sg43
F90
sg44
(F48.867763519287109
F-84.253944396972656
F-19.909673690795898
tp332
sg46
F-3.8599999999999999
sg19
F2.9691744860328493
sg47
F1
sg48
F197.4207763671875
sg49
F1
sg50
I0
sg51
Nsg52
Nsg53
Nsg54
F-1.70193619034678
sg55
F0.40077565407945925
sg56
F6.8434700766158088
sg57
F3.1470514439994857e-17
sg58
F398195789.90062022
sg59
Nsba(ipulsar
Pulsar
p333
(dp334
g7
Nsg29
I0
sg30
Nsg31
Nsg32
I00
sg33
F1530348873113.301
sg34
F6.0496784844305616
sg35
F0.050926967712033658
sg36
F33.501132965087891
sg37
F-371.7362060546875
sg38
F2.3901561152980677
sg39
F-4.7656960672185971
sg40
F35.992027282714844
sg41
I00
sg42
F11.822239277242906
sg43
F90
sg44
(F-0.97673594951629639
F-3.2157554626464844
F1.2459543943405151
tp335
sg46
F-3.8599999999999999
sg19
F2.5936347527660106
sg47
F1
sg48
F367.7449951171875
sg49
F1
sg50
I0
sg51
Nsg52
Nsg53
Nsg54
F-1.621285412176938
sg55
F0.38811456317568566
sg56
F4.1624673738734081
sg57
F1.3637650706109958e-15
sg58
F32926606.453602459
sg59
Nsba(ipulsar
Pulsar
p336
(dp337
g7
Nsg29
I0
sg30
Nsg31
Nsg32
I00
sg33
F1396844286282.0969
sg34
F18.444928045785115
sg35
F0.089186869381245371
sg36
F54.803825378417969
sg37
F-375.39532470703125
sg38
F2.8739683901891051
sg39
F30.82650219224324
sg40
F42.693031311035156
sg41
I01
sg42
F22.550306397484913
sg43
F90
sg44
(F10.962045669555664
F-9.8696784973144531
F7.1347589492797852
tp338
sg46
F-3.8599999999999999
sg19
F2.8219730613107603
sg47
F1
sg48
F101.12689971923828
sg49
F1
sg50
I0
sg51
Nsg52
Nsg53
Nsg54
F-1.2248864615600086
sg55
F0.020434381172013183
sg56
F3.3859382548490808
sg57
F8.0027969831601006e-16
sg58
F62452659.449665934
sg59
Nsba(ipulsar
Pulsar
p339
(dp340
g7
Nsg29
I0
sg30
Nsg31
Nsg32
I00
sg33
F104165546218.84273
sg34
F0.0071393707698409314
sg35
F0.14316829877482098
sg36
F49.626438140869141
sg37
F-59.831546783447266
sg38
F0.62047862221601491
sg39
F-152.55474452102951
sg40
F7.1749930381774902
sg41
I01
sg42
F10.873030232562654
sg43
F90
sg44
(F-5.0113892555236816
F18.149288177490234
F0.0013548396527767181
tp341
sg46
F-3.8599999999999999
sg19
F2.7609379738526942
sg47
F1
sg48
F191.63014221191406
sg49
F1
sg50
I0
sg51
Nsg52
Nsg53
Nsg54
F-1.6013189887021826
sg55
F0.22690692665533946
sg56
F11.088484823242293
sg57
F1.5239680893070547e-17
sg58
F608054740.4150852
sg59
Nsba(ipulsar
Pulsar
p342
(dp343
g7
Nsg29
I0
sg30
Nsg31
Nsg32
I00
sg33
F7324315346692.5166
sg34
F-0.22919898740531872
sg35
F0.48431676577084193
sg36
F-242.20611572265625
sg37
F-573.3448486328125
sg38
F5.6960497882872261
sg39
F8.485223004573573
sg40
F-154.91429138183594
sg41
I00
sg42
F10.626216774290342
sg43
F90
sg44
(F1.5679317712783813
F-2.0098176002502441
F-0.042507696896791458
tp344
sg46
F-3.8599999999999999
sg19
F2.865239745864733
sg47
F1
sg48
F811.2283935546875
sg49
F1
sg50
I0
sg51
Nsg52
Nsg53
Nsg54
F-1.948329022567054
sg55
F0.32880291298166286
sg56
F3.3682356853108275
sg57
F1.1630201985383125e-14
sg58
F8279935.8658915963
sg59
Nsba(ipulsar
Pulsar
p345
(dp346
g7
Nsg29
I0
sg30
Nsg31
Nsg32
I00
sg33
F118094951351.04626
sg34
F-1.8711257808605803
sg35
F0.0097361414922652618
sg36
F-120.40031433105469
sg37
F-103.39048004150391
sg38
F0.75012263525811951
sg39
F-54.034589182611157
sg40
F-1.2643889188766479
sg41
I00
sg42
F16.425675198141889
sg43
F90
sg44
(F-13.287387847900391
F-1.1416019201278687
F-0.5363229513168335
tp347
sg46
F-3.8599999999999999
sg19
F2.7673230415593322
sg47
F1
sg48
F623.6539306640625
sg49
F1
sg50
I0
sg51
Nsg52
Nsg53
Nsg54
F-1.7291428952156309
sg55
F0.37616436446046003
sg56
F5.9295271232569018
sg57
F1.6985651136082415e-17
sg58
F558027053.42742515
sg59
Nsba(ipulsar
Pulsar
p348
(dp349
g7
Nsg29
I0
sg30
Nsg31
Nsg32
I00
sg33
F528485870976.19452
sg34
F1.6000637734589445
sg35
F0.027996575260950344
sg36
F-340.00421142578125
sg37
F-175.64759826660156
sg38
F1.3542336572116593
sg39
F-0.94008543816088874
sg40
F-32.150405883789062
sg41
I00
sg42
F8.7459142860094694
sg43
F90
sg44
(F-0.14343695342540741
F-0.24132736027240753
F0.24420998990535736
tp350
sg46
F-3.8599999999999999
sg19
F2.8659625994025206
sg47
F1
sg48
F737.800048828125
sg49
F1
sg50
I0
sg51
Nsg52
Nsg53
Nsg54
F-1.9917912132565163
sg55
F0.28705847887140445
sg56
F0.73813181642581438
sg57
F2.0981217114140669e-16
sg58
F103550407.72886315
sg59
Nsba(ipulsar
Pulsar
p351
(dp352
g7
Nsg29
I0
sg30
Nsg31
Nsg32
I00
sg33
F912116901039.93091
sg34
F-4.7984610054436585
sg35
F0.027789325579808538
sg36
F22.778537750244141
sg37
F-787.42669677734375
sg38
F0.88987778327642542
sg39
F35.002656901644713
sg40
F-7.9837784767150879
sg41
I00
sg42
F11.146993166349462
sg43
F90
sg44
(F6.3716654777526855
F-0.59878331422805786
F-0.93245798349380493
tp353
sg46
F-3.8599999999999999
sg19
F2.9094664884620105
sg47
F1
sg48
F335.70489501953125
sg49
F1
sg50
I0
sg51
Nsg52
Nsg53
Nsg54
F-1.698388315997732
sg55
F0.12665057109771558
sg56
F9.8181349364666719
sg57
F9.0362657077109564e-16
sg58
F15948168.056318268
sg59
Nsba(ipulsar
Pulsar
p354
(dp355
g7
Nsg29
I0
sg30
Nsg31
Nsg32
I00
sg33
F145777734702.05667
sg34
F-30.34052259314068
sg35
F0.0020178934805288036
sg36
F-92.351394653320312
sg37
F-62.034641265869141
sg38
F0.58357220255550357
sg39
F19.119105907930368
sg40
F-19.564521789550781
sg41
I01
sg42
F17.602222517441248
sg43
F90
sg44
(F4.9756832122802734
F-5.8534345626831055
F-8.8915538787841797
tp356
sg46
F-3.8599999999999999
sg19
F2.7596083521259374
sg47
F1
sg48
F64.757675170898438
sg49
F1
sg50
I0
sg51
Nsg52
Nsg53
Nsg54
F-2.1600290758004652
sg55
F0.29368730168020379
sg56
F6.4624190851615388
sg57
F3.125104493319736e-17
sg58
F235835672.66234627
sg59
NsbasS'bsigma'
p357
F0.55000000000000004
sS'birthVModel'
p358
S'gaussian'
p359
sS'beamModel'
p360
S'tm98'
p361
sS'sisigma'
p362
F0.34999999999999998
sS'psigma'
p363
F0.14999999999999999
sg59
NsS'zscale'
p364
F0.33000000000000002
sS'alignModel'
p365
S'orthogonal'
p366
sS'ndet'
p367
I100
sb.