(ipopulation
Population
p1
(dp2
S'ref_freq'
p3
F1400
sS'_simean'
p4
NsS'_psigma'
p5
NsS'_sisigma'
p6
NsS'_pmean'
p7
NsS'_lummean'
p8
NsS'_lumsigma'
p9
NsS'population'
p10
(lp11
(ipulsar
Pulsar
p12
(dp13
S'_dm'
p14
NsS'width_degree'
p15
F28.683607766372873
sS'period'
p16
F155.09254990141926
sS'_period'
p17
NsS'gb'
p18
F3.9976087805433691
sS'lum_1400'
p19
F41.954667232098998
sS'gl'
p20
F-35.993009708767119
sS'beaming'
p21
I01
sS'_galCoords'
p22
NsS'galCoords'
p23
(F-3.9147756847621231
F3.1103908657908663
F0.46552640220469604
tp24
sS'scindex'
p25
F-3.8599999999999999
sS'_width_degree'
p26
NsS'_spindex'
p27
NsS'_gl'
p28
NsS'dm'
p29
F300.77511596679688
sS'_rho'
p30
NsS'_gb'
p31
NsS'_scindex'
p32
NsS'rho'
p33
F13.617796833539559
sS'_lum1400'
p34
NsS'alpha'
p35
F70.508324227163214
sS'spindex'
p36
F-1.7855943352161225
sS'r0'
p37
I5
sS'_alpha'
p38
NsS'dtrue'
p39
F6.6775796597798012
sS'_dtrue'
p40
Nsba(ipulsar
Pulsar
p41
(dp42
g14
Nsg15
F21.406021855494412
sg16
F578.07985846590532
sg17
Nsg18
F1.3409249620644126
sg19
F172.98494877382265
sg20
F-0
sg21
I01
sg22
Nsg23
(F-0
F0
F0.19896655042506908
tp43
sg25
F-3.8599999999999999
sg26
Nsg27
Nsg28
Nsg29
F742.92852783203125
sg30
Nsg31
Nsg32
Nsg33
F7.9462046320585804
sg34
Nsg35
F44.659129083863967
sg36
F-1.8018561588764195
sg37
I0
sg38
Nsg39
F8.5023283686404429
sg40
Nsba(ipulsar
Pulsar
p44
(dp45
g14
Nsg15
F21.896095362084726
sg16
F240.41624517950697
sg17
Nsg18
F0.939135497497811
sg19
F7.1071542235595464
sg20
F44.894202569764182
sg21
I01
sg22
Nsg23
(F4.3146982829806015
F4.1693379242805735
F0.10021053081095187
tp46
sg25
F-3.8599999999999999
sg26
Nsg27
Nsg28
Nsg29
F220.24131774902344
sg30
Nsg31
Nsg32
Nsg33
F11.351810368260727
sg34
Nsg35
F65.807038542817267
sg36
F-1.3305198357364947
sg37
I6
sg38
Nsg39
F6.1140246513827252
sg40
Nsba(ipulsar
Pulsar
p47
(dp48
g14
Nsg15
F3.0834544470660812
sg16
F2460.3094083555438
sg17
Nsg18
F1.9653849269989849
sg19
F2.2792825200901801
sg20
F12.860003789417746
sg21
I01
sg22
Nsg23
(F1.0599784687006606
F3.8569995651919644
F0.16342802939434198
tp49
sg25
F-3.8599999999999999
sg26
Nsg27
Nsg28
Nsg29
F291.04693603515625
sg30
Nsg31
Nsg32
Nsg33
F4.2190081117780487
sg34
Nsg35
F59.555687145810296
sg36
F-1.8535724777006108
sg37
I4
sg38
Nsg39
F4.7652613897380611
sg40
Nsba(ipulsar
Pulsar
p50
(dp51
g14
Nsg15
F9.397886785484479
sg16
F1623.8740375256666
sg17
Nsg18
F3.739472058868814
sg19
F3.2230067238865243
sg20
F-38.788522501776065
sg21
I01
sg22
Nsg23
(F-1.3040154816926559
F6.8774663665848541
F0.13605135277838512
tp52
sg25
F-3.8599999999999999
sg26
Nsg27
Nsg28
Nsg29
F105.23137664794922
sg30
Nsg31
Nsg32
Nsg33
F4.2897839666840074
sg34
Nsg35
F64.868498140782577
sg36
F-1.3536439979660151
sg37
I7
sg38
Nsg39
F2.0860445198150286
sg40
Nsba(ipulsar
Pulsar
p53
(dp54
g14
Nsg15
F22.919633194815784
sg16
F221.34300036841813
sg17
Nsg18
F0.2704081339979616
sg19
F3.2365056659106357
sg20
F30.669030863417714
sg21
I01
sg22
Nsg23
(F1.613661098517547
F5.7789357029760371
F0.014930557025208711
tp55
sg25
F-3.8599999999999999
sg26
Nsg27
Nsg28
Nsg29
F124.29722595214844
sg30
Nsg31
Nsg32
Nsg33
F13.521347679736955
sg34
Nsg35
F66.092057391860905
sg36
F-1.2789606637350046
sg37
I6
sg38
Nsg39
F3.1635922573777511
sg40
Nsba(ipulsar
Pulsar
p56
(dp57
g14
Nsg15
F14.445471680539422
sg16
F246.33971413403469
sg17
Nsg18
F-1.1235715097024868
sg19
F17.869080985153957
sg20
F-4.5809565781589594
sg21
I01
sg22
Nsg23
(F-0.44331862351543616
F2.9670639693212513
F-0.10886267288150425
tp58
sg25
F-3.8599999999999999
sg26
Nsg27
Nsg28
Nsg29
F442.31320190429688
sg30
Nsg31
Nsg32
Nsg33
F9.6561314900132658
sg34
Nsg35
F45.269428356183838
sg36
F-1.0618627006446126
sg37
I3
sg38
Nsg39
F5.5517351884870765
sg40
Nsba(ipulsar
Pulsar
p59
(dp60
g14
Nsg15
F29.792879001590705
sg16
F337.08917034161738
sg17
Nsg18
F-5.5781773532435874
sg19
F5.1929203638624015
sg20
F-54.830029856825924
sg21
I01
sg22
Nsg23
(F-3.3080694272716635
F6.1690093746362979
F-0.39523913724649012
tp61
sg25
F-3.8599999999999999
sg26
Nsg27
Nsg28
Nsg29
F174.042724609375
sg30
Nsg31
Nsg32
Nsg33
F13.102728161612886
sg34
Nsg35
F60.204408165243528
sg36
F-1.7570546271009453
sg37
I7
sg38
Nsg39
F4.066085907453787
sg40
Nsba(ipulsar
Pulsar
p62
(dp63
g14
Nsg15
F19.360676333144049
sg16
F995.91993858880448
sg17
Nsg18
F-3.7329807952491008
sg19
F4.7622161251645982
sg20
F21.201136073638846
sg21
I01
sg22
Nsg23
(F1.439791262312494
F4.7882148156665441
F-0.25975723084639274
tp64
sg25
F-3.8599999999999999
sg26
Nsg27
Nsg28
Nsg29
F173.27653503417969
sg30
Nsg31
Nsg32
Nsg33
F5.2708406146007398
sg34
Nsg35
F23.836814813001194
sg36
F-1.164944327840316
sg37
I5
sg38
Nsg39
F3.989714520193862
sg40
Nsba(ipulsar
Pulsar
p65
(dp66
g14
Nsg15
F6.4314650648512464
sg16
F268.94712939284364
sg17
Nsg18
F2.7671816548865182
sg19
F26.131672051265593
sg20
F-0.33470706138873391
sg21
I01
sg22
Nsg23
(F-0.055488163474065003
F-0.99845934504829759
F0.45910653058654494
tp67
sg25
F-3.8599999999999999
sg26
Nsg27
Nsg28
Nsg29
F484.41616821289062
sg30
Nsg31
Nsg32
Nsg33
F9.8941121920208044
sg34
Nsg35
F73.385493115782452
sg36
F-1.8136969555623996
sg37
I1
sg38
Nsg39
F9.5097101781415123
sg40
Nsba(ipulsar
Pulsar
p68
(dp69
g14
Nsg15
F32.069708377103282
sg16
F583.97129586431038
sg17
Nsg18
F-5.6605202148675078
sg19
F1.9110370454191301
sg20
F28.730304353313578
sg21
I01
sg22
Nsg23
(F0.85069900497296969
F6.9481156584312842
F-0.17541354384593111
tp70
sg25
F-3.8599999999999999
sg26
Nsg27
Nsg28
Nsg29
F51.991676330566406
sg30
Nsg31
Nsg32
Nsg33
F7.6683276007574745
sg34
Nsg35
F28.8750701192685
sg36
F-1.2063806249111895
sg37
I7
sg38
Nsg39
F1.7784273159262811
sg40
Nsba(ipulsar
Pulsar
p71
(dp72
g14
Nsg15
F3.8369312370391966
sg16
F206.43277138508341
sg17
Nsg18
F4.224655191824688
sg19
F15.62426860898133
sg20
F-0
sg21
I01
sg22
Nsg23
(F-0
F0
F0.62787849425417841
tp73
sg25
F-3.8599999999999999
sg26
Nsg27
Nsg28
Nsg29
F372.45306396484375
sg30
Nsg31
Nsg32
Nsg33
F9.1765061598623205
sg34
Nsg35
F80.250765137485899
sg36
F-1.6709073569799895
sg37
I0
sg38
Nsg39
F8.523158534460503
sg40
Nsba(ipulsar
Pulsar
p74
(dp75
g14
Nsg15
F26.523098607103851
sg16
F908.34501099597924
sg17
Nsg18
F-0.71331321731672537
sg19
F32.974677314551229
sg20
F-0
sg21
I01
sg22
Nsg23
(F-0
F-0
F-0.10582761365125883
tp76
sg25
F-3.8599999999999999
sg26
Nsg27
Nsg28
Nsg29
F634.46697998046875
sg30
Nsg31
Nsg32
Nsg33
F4.490373220963364
sg34
Nsg35
F17.619904802424934
sg36
F-1.9737832822715589
sg37
I0
sg38
Nsg39
F8.5006587676374306
sg40
Nsba(ipulsar
Pulsar
p77
(dp78
g14
Nsg15
F23.978465300547789
sg16
F387.72864673673547
sg17
Nsg18
F-4.0550004831406641
sg19
F31.271247694401566
sg20
F17.847568688785021
sg21
I01
sg22
Nsg23
(F1.5494680831636352
F3.6877023550250376
F-0.35839889980658657
tp79
sg25
F-3.8599999999999999
sg26
Nsg27
Nsg28
Nsg29
F216.81626892089844
sg30
Nsg31
Nsg32
Nsg33
F9.3527694687341256
sg34
Nsg35
F51.180575242817554
sg36
F-1.5481962558421367
sg37
I4
sg38
Nsg39
F5.0682846936569108
sg40
Nsba(ipulsar
Pulsar
p80
(dp81
g14
Nsg15
F92.155976871729067
sg16
F134.40853279113304
sg17
Nsg18
F-2.1491195058865951
sg19
F11.666130388962781
sg20
F42.470674482418552
sg21
I01
sg22
Nsg23
(F3.052240843930897
F5.1656389566674132
F-0.16963670734261851
tp82
sg25
F-3.8599999999999999
sg26
Nsg27
Nsg28
Nsg29
F136.65608215332031
sg30
Nsg31
Nsg32
Nsg33
F18.272643086808422
sg34
Nsg35
F25.63321946345166
sg36
F-0.88314263878166777
sg37
I6
sg38
Nsg39
F4.5235952901571572
sg40
Nsba(ipulsar
Pulsar
p83
(dp84
g14
Nsg15
F16.989952099535682
sg16
F321.94519457506573
sg17
Nsg18
F0.84269777837246429
sg19
F1.2117560208627693
sg20
F-67.913914450044501
sg21
I01
sg22
Nsg23
(F-1.6627565230666836
F7.8252949302246231
F0.02639414134520434
tp85
sg25
F-3.8599999999999999
sg26
Nsg27
Nsg28
Nsg29
F70.428665161132812
sg30
Nsg31
Nsg32
Nsg33
F11.585001576333285
sg34
Nsg35
F69.445324565828827
sg36
F-1.985619603528328
sg37
I8
sg38
Nsg39
F1.7946260994643852
sg40
Nsba(ipulsar
Pulsar
p86
(dp87
g14
Nsg15
F11.052646058523642
sg16
F325.9723082797392
sg17
Nsg18
F1.7809189233095264
sg19
F4.3677723449686345
sg20
F44.868995449927432
sg21
I01
sg22
Nsg23
(F4.3913988356069087
F4.0884735863926389
F0.19354170523520836
tp88
sg25
F-3.8599999999999999
sg26
Nsg27
Nsg28
Nsg29
F209.26582336425781
sg30
Nsg31
Nsg32
Nsg33
F8.7595446603327378
sg34
Nsg35
F67.697322736839737
sg36
F-1.8663197135843832
sg37
I6
sg38
Nsg39
F6.2276325696841246
sg40
Nsba(ipulsar
Pulsar
p89
(dp90
g14
Nsg15
F37.033975001001323
sg16
F375.85621744416972
sg17
Nsg18
F-0.98311329786881529
sg19
F5.4228332252851743
sg20
F35.700308630379375
sg21
I01
sg22
Nsg23
(F2.0580098171255274
F5.6360088353918467
F-0.060519623299927376
tp91
sg25
F-3.8599999999999999
sg26
Nsg27
Nsg28
Nsg29
F152.00898742675781
sg30
Nsg31
Nsg32
Nsg33
F8.7219951588422298
sg34
Nsg35
F28.504194698664243
sg36
F-1.2875105418603103
sg37
I6
sg38
Nsg39
F3.5272528153143456
sg40
Nsba(ipulsar
Pulsar
p92
(dp93
g14
Nsg15
F39.358252690867722
sg16
F195.09214024974548
sg17
Nsg18
F4.6919265158448171
sg19
F21.588647874874482
sg20
F-3.6622277846886031
sg21
I01
sg22
Nsg23
(F-0.59546408515434157
F-0.80338192865616731
F0.76511986926002762
tp94
sg25
F-3.8599999999999999
sg26
Nsg27
Nsg28
Nsg29
F378.86212158203125
sg30
Nsg31
Nsg32
Nsg33
F16.682928157438798
sg34
Nsg35
F52.825014931799444
sg36
F-1.4177782741877247
sg37
I1
sg38
Nsg39
F9.3537640124973933
sg40
Nsba(ipulsar
Pulsar
p95
(dp96
g14
Nsg15
F7.5204319570381468
sg16
F992.00308391120575
sg17
Nsg18
F2.0301371969934978
sg19
F6.0445254546604161
sg20
F-55.218400116896078
sg21
I01
sg22
Nsg23
(F-3.5628201232622021
F6.0254719955600082
F0.15376570131429729
tp97
sg25
F-3.8599999999999999
sg26
Nsg27
Nsg28
Nsg29
F215.41156005859375
sg30
Nsg31
Nsg32
Nsg33
F4.1720392200932617
sg34
Nsg35
F57.369531211817282
sg36
F-1.682889977781223
sg37
I-7
sg38
Nsg39
F4.3405782986118959
sg40
Nsba(ipulsar
Pulsar
p98
(dp99
g14
Nsg15
F26.459112603487728
sg16
F320.07911257487621
sg17
Nsg18
F-3.5472779422997713
sg19
F41.534802356364978
sg20
F48.957552676187994
sg21
I01
sg22
Nsg23
(F2.089568864649658
F6.6808459015222574
F-0.17174523562956068
tp100
sg25
F-3.8599999999999999
sg26
Nsg27
Nsg28
Nsg29
F50.104984283447266
sg30
Nsg31
Nsg32
Nsg33
F11.670172744835407
sg34
Nsg35
F59.35078173852456
sg36
F-1.6364346219350123
sg37
I7
sg38
Nsg39
F2.7758090892716454
sg40
Nsba(ipulsar
Pulsar
p101
(dp102
g14
Nsg15
F4.1292277270747269
sg16
F515.38620807434825
sg17
Nsg18
F1.9125190377008512
sg19
F1.2834682782827531
sg20
F-24.755547073665419
sg21
I01
sg22
Nsg23
(F-0.70825006927690193
F6.9640779604603269
F0.056477922094831851
tp103
sg25
F-3.8599999999999999
sg26
Nsg27
Nsg28
Nsg29
F61.638332366943359
sg30
Nsg31
Nsg32
Nsg33
F9.0602423811836772
sg34
Nsg35
F62.385436148968743
sg36
F-1.8526529234504319
sg37
I7
sg38
Nsg39
F1.6922956088871102
sg40
Nsba(ipulsar
Pulsar
p104
(dp105
g14
Nsg15
F12.942834326999986
sg16
F422.99154750413527
sg17
Nsg18
F4.2673560151271586
sg19
F15.775194935867754
sg20
F-27.935046808929805
sg21
I01
sg22
Nsg23
(F-3.3404287493628999
F2.2003490110502502
F0.5320598191204402
tp106
sg25
F-3.8599999999999999
sg26
Nsg27
Nsg28
Nsg29
F229.98936462402344
sg30
Nsg31
Nsg32
Nsg33
F6.9346044228014296
sg34
Nsg35
F59.884074357449762
sg36
F-1.7433727711331546
sg37
I4
sg38
Nsg39
F7.1503254795336577
sg40
Nsba(ipulsar
Pulsar
p107
(dp108
g14
Nsg15
F24.164876445696233
sg16
F148.67323559492272
sg17
Nsg18
F-2.1789771903856914
sg19
F8.7192065946870727
sg20
F-14.915469355558407
sg21
I01
sg22
Nsg23
(F-1.5857940695505097
F2.5466168084300458
F-0.23441660854834345
tp109
sg25
F-3.8599999999999999
sg26
Nsg27
Nsg28
Nsg29
F361.47598266601562
sg30
Nsg31
Nsg32
Nsg33
F18.586938252320927
sg34
Nsg35
F53.066269615383028
sg36
F-1.3238568777818582
sg37
I3
sg38
Nsg39
F6.1654249977639433
sg40
Nsba(ipulsar
Pulsar
p110
(dp111
g14
Nsg15
F12.264721936510318
sg16
F195.28922292605964
sg17
Nsg18
F3.566623469894187
sg19
F0.22530984529582138
sg20
F-55.546450230804403
sg21
I01
sg22
Nsg23
(F-0.78504793787808702
F7.9613880533003387
F0.059341263430478582
tp112
sg25
F-3.8599999999999999
sg26
Nsg27
Nsg28
Nsg29
F28.310634613037109
sg30
Nsg31
Nsg32
Nsg33
F16.072347927974878
sg34
Nsg35
F48.597460671608779
sg36
F-1.561255305362673
sg37
I8
sg38
Nsg39
F0.95389961706657633
sg40
Nsba(ipulsar
Pulsar
p113
(dp114
g14
Nsg15
F12.458708495901565
sg16
F1020.345207516757
sg17
Nsg18
F-4.0178444246513205
sg19
F3.2743532856755064
sg20
F-33.714375698804517
sg21
I01
sg22
Nsg23
(F-1.8669492038204316
F5.7021487765888974
F-0.23625505384217735
tp115
sg25
F-3.8599999999999999
sg26
Nsg27
Nsg28
Nsg29
F168.29405212402344
sg30
Nsg31
Nsg32
Nsg33
F7.143541999495377
sg34
Nsg35
F16.611746415475643
sg36
F-1.3397108092475238
sg37
I6
sg38
Nsg39
F3.3718373698111117
sg40
Nsba(ipulsar
Pulsar
p116
(dp117
g14
Nsg15
F34.358109001391036
sg16
F289.13891048146223
sg17
Nsg18
F-3.9921660867840734
sg19
F42.947766228999953
sg20
F-21.514950435278045
sg21
I01
sg22
Nsg23
(F-3.8193402066851658
F-1.1885454915980773
F-0.72679998174651694
tp118
sg25
F-3.8599999999999999
sg26
Nsg27
Nsg28
Nsg29
F438.5010986328125
sg30
Nsg31
Nsg32
Nsg33
F12.667403669388579
sg34
Nsg35
F44.326126473712705
sg36
F-1.7223351969510086
sg37
I4
sg38
Nsg39
F10.439516826493172
sg40
Nsba(ipulsar
Pulsar
p119
(dp120
g14
Nsg15
F49.288495836182797
sg16
F247.38936142257791
sg17
Nsg18
F3.8509427303561212
sg19
F4.6409704350176186
sg20
F-10.760615823106011
sg21
I01
sg22
Nsg23
(F-0.67383641555503337
F4.9543863883504224
F0.24293782381261114
tp121
sg25
F-3.8599999999999999
sg26
Nsg27
Nsg28
Nsg29
F187.01889038085938
sg30
Nsg31
Nsg32
Nsg33
F13.332398842118433
sg34
Nsg35
F33.431928450136205
sg36
F-1.6430197580365498
sg37
I5
sg38
Nsg39
F3.6172434510662432
sg40
Nsba(ipulsar
Pulsar
p122
(dp123
g14
Nsg15
F38.580710605039997
sg16
F209.52234678289665
sg17
Nsg18
F3.4994383814251382
sg19
F33.047107192325043
sg20
F-23.584629416843097
sg21
I01
sg22
Nsg23
(F-2.2742989461850542
F3.2905264477559744
F0.34760959284804788
tp124
sg25
F-3.8599999999999999
sg26
Nsg27
Nsg28
Nsg29
F293.6888427734375
sg30
Nsg31
Nsg32
Nsg33
F11.840635342791716
sg34
Nsg35
F33.322003137782175
sg36
F-0.93573658080191024
sg37
I4
sg38
Nsg39
F5.6948997196779878
sg40
Nsba(ipulsar
Pulsar
p125
(dp126
g14
Nsg15
F23.728553069138265
sg16
F464.36601230834827
sg17
Nsg18
F2.6783554776544656
sg19
F9.6074518265983446
sg20
F-24.768755501150558
sg21
I01
sg22
Nsg23
(F-2.4703487240557216
F3.1460097236906734
F0.27583597580361535
tp127
sg25
F-3.8599999999999999
sg26
Nsg27
Nsg28
Nsg29
F314.09475708007812
sg30
Nsg31
Nsg32
Nsg33
F9.4864205534497579
sg34
Nsg35
F53.18012305214279
sg36
F-1.8734594983487958
sg37
I4
sg38
Nsg39
F5.9028738918264283
sg40
Nsba(ipulsar
Pulsar
p128
(dp129
g14
Nsg15
F29.244141707029279
sg16
F351.94879898911444
sg17
Nsg18
F1.8222125561612197
sg19
F12.553455522632307
sg20
F-18.243037981138546
sg21
I01
sg22
Nsg23
(F-2.0934447287706162
F2.1488343741625417
F0.21275161449518823
tp130
sg25
F-3.8599999999999999
sg26
Nsg27
Nsg28
Nsg29
F460.5867919921875
sg30
Nsg31
Nsg32
Nsg33
F11.050659230040068
sg34
Nsg35
F49.396230482493486
sg36
F-1.3554979392062683
sg37
I3
sg38
Nsg39
F6.6906710342615936
sg40
Nsba(ipulsar
Pulsar
p131
(dp132
g14
Nsg15
F17.663731487444934
sg16
F914.44367694404457
sg17
Nsg18
F-2.3279801440687922
sg19
F4.4989336950572323
sg20
F14.670236240247077
sg21
I01
sg22
Nsg23
(F0.93958376825905288
F4.9109247950283379
F-0.1508246912804079
tp133
sg25
F-3.8599999999999999
sg26
Nsg27
Nsg28
Nsg29
F177.42648315429688
sg30
Nsg31
Nsg32
Nsg33
F5.9066302053423367
sg34
Nsg35
F41.993822222175183
sg36
F-1.2895960238952029
sg37
I5
sg38
Nsg39
F3.7130885489061649
sg40
Nsba(ipulsar
Pulsar
p134
(dp135
g14
Nsg15
F13.878214584645351
sg16
F933.63545116355374
sg17
Nsg18
F5.2998855200738166
sg19
F0.98724152362960105
sg20
F-4.4844606107574059
sg21
I01
sg22
Nsg23
(F-0.19632402322009765
F5.9967872129921931
F0.23292406392642617
tp136
sg25
F-3.8599999999999999
sg26
Nsg27
Nsg28
Nsg29
F121.02682495117188
sg30
Nsg31
Nsg32
Nsg33
F6.955501086988634
sg34
Nsg35
F82.8595879023609
sg36
F-1.7912540632828755
sg37
I6
sg38
Nsg39
F2.5216801935790194
sg40
Nsba(ipulsar
Pulsar
p137
(dp138
g14
Nsg15
F1.9034533147811752
sg16
F806.36242699817194
sg17
Nsg18
F-0.91690786109471512
sg19
F2.6956250613697263
sg20
F33.487762340826713
sg21
I01
sg22
Nsg23
(F2.9550664043966952
F4.0333091309253728
F-0.08571524379393676
tp139
sg25
F-3.8599999999999999
sg26
Nsg27
Nsg28
Nsg29
F206.38142395019531
sg30
Nsg31
Nsg32
Nsg33
F5.1255825583868484
sg34
Nsg35
F33.630665453141226
sg36
F-1.5697775433709347
sg37
I5
sg38
Nsg39
F5.3564066198606799
sg40
Nsba(ipulsar
Pulsar
p140
(dp141
g14
Nsg15
F12.419010288706229
sg16
F600.48551492269883
sg17
Nsg18
F-3.5209702628750885
sg19
F6.3864511447122547
sg20
F29.744727828123832
sg21
I01
sg22
Nsg23
(F2.3288157319336351
F4.4245471278649982
F-0.28881566670608111
tp142
sg25
F-3.8599999999999999
sg26
Nsg27
Nsg28
Nsg29
F194.30015563964844
sg30
Nsg31
Nsg32
Nsg33
F5.4507560758606068
sg34
Nsg35
F54.703516817868028
sg36
F-1.5621385392799614
sg37
I5
sg38
Nsg39
F4.7027771917910277
sg40
Nsba(ipulsar
Pulsar
p143
(dp144
g14
Nsg15
F17.839760757263534
sg16
F338.60582288186606
sg17
Nsg18
F-3.3728562123404595
sg19
F3.5797993569830533
sg20
F-54.274821470120912
sg21
I01
sg22
Nsg23
(F-3.0745953490504032
F6.2886296949015552
F-0.22320387684960932
tp145
sg25
F-3.8599999999999999
sg26
Nsg27
Nsg28
Nsg29
F181.14852905273438
sg30
Nsg31
Nsg32
Nsg33
F9.8708111851610472
sg34
Nsg35
F81.783402359066471
sg36
F-1.4558703027185276
sg37
I7
sg38
Nsg39
F3.7938259260691254
sg40
Nsba(ipulsar
Pulsar
p146
(dp147
g14
Nsg15
F5.6461579521040814
sg16
F665.1559783647989
sg17
Nsg18
F-4.4996729702787039
sg19
F12.764998185154411
sg20
F-11.275364052655208
sg21
I01
sg22
Nsg23
(F-0.91848566846449597
F3.8931200953509419
F-0.36967807679266901
tp148
sg25
F-3.8599999999999999
sg26
Nsg27
Nsg28
Nsg29
F230.13252258300781
sg30
Nsg31
Nsg32
Nsg33
F8.8699885592957184
sg34
Nsg35
F74.8766599321916
sg36
F-1.2169083611038414
sg37
I4
sg38
Nsg39
F4.7120717587378813
sg40
Nsba(ipulsar
Pulsar
p149
(dp150
g14
Nsg15
F7.4227763170448933
sg16
F1753.7124314320251
sg17
Nsg18
F0.86843314815001615
sg19
F34.045696298467995
sg20
F-3.5213969443779636
sg21
I01
sg22
Nsg23
(F-0.63967856129916678
F-1.8949436240200468
F0.15786647462324971
tp151
sg25
F-3.8599999999999999
sg26
Nsg27
Nsg28
Nsg29
F741.5787353515625
sg30
Nsg31
Nsg32
Nsg33
F3.5967794720460229
sg34
Nsg35
F72.798165806163894
sg36
F-1.2826338900855869
sg37
I2
sg38
Nsg39
F10.415803542317358
sg40
Nsba(ipulsar
Pulsar
p152
(dp153
g14
Nsg15
F127.41029980133216
sg16
F272.19537348090154
sg17
Nsg18
F1.453708561292631
sg19
F152.2146073488118
sg20
F4.1742271730214444
sg21
I01
sg22
Nsg23
(F0.67425498945688811
F-0.73849861827392183
F0.23507307772724712
tp154
sg25
F-3.8599999999999999
sg26
Nsg27
Nsg28
Nsg29
F578.000732421875
sg30
Nsg31
Nsg32
Nsg33
F8.4075178995882602
sg34
Nsg35
F9.0849112152587637
sg36
F-1.107810862585191
sg37
I1
sg38
Nsg39
F9.2660528739333685
sg40
Nsba(ipulsar
Pulsar
p155
(dp156
g14
Nsg15
F13.387664295711355
sg16
F316.54901635188941
sg17
Nsg18
F-0.80165261507867147
sg19
F10.055294465141694
sg20
F26.161878375807824
sg21
I01
sg22
Nsg23
(F2.7473621454358614
F2.9072325744298579
F-0.087188478365760907
tp157
sg25
F-3.8599999999999999
sg26
Nsg27
Nsg28
Nsg29
F404.39273071289062
sg30
Nsg31
Nsg32
Nsg33
F11.846255357284978
sg34
Nsg35
F30.715989928762635
sg36
F-1.3188764530567554
sg37
I4
sg38
Nsg39
F6.2317451861779585
sg40
Nsba(ipulsar
Pulsar
p158
(dp159
g14
Nsg15
F5.4732636927848812
sg16
F1371.8926763082632
sg17
Nsg18
F-5.3176419445420855
sg19
F1.1659161817927008
sg20
F-14.94486485404625
sg21
I01
sg22
Nsg23
(F-0.67753888539916451
F5.9616223512372919
F-0.24453815605317172
tp160
sg25
F-3.8599999999999999
sg26
Nsg27
Nsg28
Nsg29
F103.9439697265625
sg30
Nsg31
Nsg32
Nsg33
F3.4794259564958843
sg34
Nsg35
F62.362500999784501
sg36
F-1.5311059489078107
sg37
I6
sg38
Nsg39
F2.638601701419129
sg40
Nsba(ipulsar
Pulsar
p161
(dp162
g14
Nsg15
F27.933546985641328
sg16
F286.29051227750512
sg17
Nsg18
F-1.904637106158301
sg19
F27.380462540644455
sg20
F-13.309868838801577
sg21
I01
sg22
Nsg23
(F-1.9994146787457732
F0.048383286535086244
F-0.28881146685837455
tp163
sg25
F-3.8599999999999999
sg26
Nsg27
Nsg28
Nsg29
F534.27032470703125
sg30
Nsg31
Nsg32
Nsg33
F8.6190283231496441
sg34
Nsg35
F32.10592325523443
sg36
F-1.7002069943946474
sg37
I2
sg38
Nsg39
F8.6897005812796806
sg40
Nsba(ipulsar
Pulsar
p164
(dp165
g14
Nsg15
F15.973423981541391
sg16
F307.78896105606492
sg17
Nsg18
F-5.4663659767094197
sg19
F46.895530150476127
sg20
F26.35306806589902
sg21
I01
sg22
Nsg23
(F2.7915923938825511
F2.8647882830005234
F-0.60181377845481865
tp166
sg25
F-3.8599999999999999
sg26
Nsg27
Nsg28
Nsg29
F232.38360595703125
sg30
Nsg31
Nsg32
Nsg33
F7.5823641681448635
sg34
Nsg35
F52.35009303601182
sg36
F-1.2601956742504459
sg37
I-4
sg38
Nsg39
F6.3174978443153549
sg40
Nsba(ipulsar
Pulsar
p167
(dp168
g14
Nsg15
F13.495250641117924
sg16
F495.28503771271255
sg17
Nsg18
F-3.5319865280956124
sg19
F16.348180734133113
sg20
F27.812982957853908
sg21
I01
sg22
Nsg23
(F3.2649605692711687
F2.3108510296218761
F-0.43190899935618565
tp169
sg25
F-3.8599999999999999
sg26
Nsg27
Nsg28
Nsg29
F301.27783203125
sg30
Nsg31
Nsg32
Nsg33
F6.7288961249820449
sg34
Nsg35
F38.079333329641059
sg36
F-2.2050853160031929
sg37
I4
sg38
Nsg39
F7.0108542903238948
sg40
Nsba(ipulsar
Pulsar
p170
(dp171
g14
Nsg15
F17.722227877927985
sg16
F315.79367323318354
sg17
Nsg18
F1.9488634594641852
sg19
F26.834850951629519
sg20
F4.9470107347858798
sg21
I01
sg22
Nsg23
(F0.78892162532665178
F-0.61449383161424342
F0.31130040733388947
tp172
sg25
F-3.8599999999999999
sg26
Nsg27
Nsg28
Nsg29
F525.06365966796875
sg30
Nsg31
Nsg32
Nsg33
F11.814467402040099
sg34
Nsg35
F47.472462429077744
sg36
F-1.9834637927198597
sg37
I-1
sg38
Nsg39
F9.1538682031722729
sg40
Nsba(ipulsar
Pulsar
p173
(dp174
g14
Nsg15
F6.8789263017064481
sg16
F550.11497824098035
sg17
Nsg18
F-1.7779151696680173
sg19
F6.7553693236442962
sg20
F49.795566909550466
sg21
I01
sg22
Nsg23
(F6.1903815085086711
F3.2679009744963068
F-0.2515916622691528
tp175
sg25
F-3.8599999999999999
sg26
Nsg27
Nsg28
Nsg29
F261.34140014648438
sg30
Nsg31
Nsg32
Nsg33
F5.9654883805531878
sg34
Nsg35
F11.249225344587845
sg36
F-1.4409909553509037
sg37
I7
sg38
Nsg39
F8.1091911925965938
sg40
Nsba(ipulsar
Pulsar
p176
(dp177
g14
Nsg15
F7.5492478680414337
sg16
F1623.2878555028381
sg17
Nsg18
F-2.3436185273954471
sg19
F9.6349866692370494
sg20
F2.1857429079884203
sg21
I01
sg22
Nsg23
(F0.28786754915537871
F0.95767023246171523
F-0.30890732219308153
tp178
sg25
F-3.8599999999999999
sg26
Nsg27
Nsg28
Nsg29
F410.7158203125
sg30
Nsg31
Nsg32
Nsg33
F4.7266403190973865
sg34
Nsg35
F63.712465106027793
sg36
F-1.2656598290763841
sg37
I-1
sg38
Nsg39
F7.5541399101324131
sg40
Nsba(ipulsar
Pulsar
p179
(dp180
g14
Nsg15
F35.51253477427052
sg16
F166.14104908332462
sg17
Nsg18
F-1.0945202044287208
sg19
F4.7627355623312679
sg20
F20.071380072227907
sg21
I01
sg22
Nsg23
(F1.3463092690923109
F4.8153350197007194
F-0.074948592584074047
tp181
sg25
F-3.8599999999999999
sg26
Nsg27
Nsg28
Nsg29
F226.79447937011719
sg30
Nsg31
Nsg32
Nsg33
F13.243944902113487
sg34
Nsg35
F42.535135454260036
sg36
F-1.1707216028642655
sg37
I5
sg38
Nsg39
F3.9236363180878659
sg40
Nsba(ipulsar
Pulsar
p182
(dp183
g14
Nsg15
F46.823164822600717
sg16
F326.11249146405828
sg17
Nsg18
F-1.3027639598728122
sg19
F8.7688945000253664
sg20
F-28.596263108546403
sg21
I01
sg22
Nsg23
(F-2.1809210666280512
F4.49928697697068
F-0.10362244081724918
tp184
sg25
F-3.8599999999999999
sg26
Nsg27
Nsg28
Nsg29
F195.32270812988281
sg30
Nsg31
Nsg32
Nsg33
F12.217457576755937
sg34
Nsg35
F24.238629030925633
sg36
F-1.5941415513871346
sg37
I5
sg38
Nsg39
F4.5577252003317792
sg40
Nsba(ipulsar
Pulsar
p185
(dp186
g14
Nsg15
F7.5126733645257149
sg16
F1123.4611816957274
sg17
Nsg18
F-1.4441431046568987
sg19
F20.406616609196075
sg20
F-20.320269767496008
sg21
I01
sg22
Nsg23
(F-2.9541237613799618
F0.52264022276352429
F-0.21445896833097342
tp187
sg25
F-3.8599999999999999
sg26
Nsg27
Nsg28
Nsg29
F600.19976806640625
sg30
Nsg31
Nsg32
Nsg33
F4.2647586292934925
sg34
Nsg35
F30.875633086555805
sg36
F-1.5704133038927264
sg37
I3
sg38
Nsg39
F8.5094717146317418
sg40
Nsba(ipulsar
Pulsar
p188
(dp189
g14
Nsg15
F5.9661524744367735
sg16
F498.24711697757596
sg17
Nsg18
F-5.7383891445241018
sg19
F17.588344924422962
sg20
F35.507307466725663
sg21
I01
sg22
Nsg23
(F4.4788689809074222
F2.2225509334693112
F-0.77492479163997408
tp190
sg25
F-3.8599999999999999
sg26
Nsg27
Nsg28
Nsg29
F240.99578857421875
sg30
Nsg31
Nsg32
Nsg33
F9.2318065444808468
sg34
Nsg35
F43.574194261507209
sg36
F-1.5894323751927186
sg37
I5
sg38
Nsg39
F7.7502995144523261
sg40
Nsba(ipulsar
Pulsar
p191
(dp192
g14
Nsg15
F4.0421810181990727
sg16
F523.22783632139374
sg17
Nsg18
F1.6863115363474128
sg19
F5.1154848193920461
sg20
F-55.033140165664584
sg21
I01
sg22
Nsg23
(F-4.5599187601839084
F5.3110395310638436
F0.16381641073337072
tp193
sg25
F-3.8599999999999999
sg26
Nsg27
Nsg28
Nsg29
F282.18133544921875
sg30
Nsg31
Nsg32
Nsg33
F5.5957147486506251
sg34
Nsg35
F67.399625379767727
sg36
F-1.2197510374227052
sg37
I7
sg38
Nsg39
F5.566791157241326
sg40
Nsba(ipulsar
Pulsar
p194
(dp195
g14
Nsg15
F2.665948256573266
sg16
F982.18791193437403
sg17
Nsg18
F0.70601199950343618
sg19
F2.2325094356354165
sg20
F25.519329121475661
sg21
I01
sg22
Nsg23
(F1.8379859022705289
F4.6499255717758317
F0.052572934775056111
tp196
sg25
F-3.8599999999999999
sg26
Nsg27
Nsg28
Nsg29
F184.95477294921875
sg30
Nsg31
Nsg32
Nsg33
F5.8707567323052023
sg34
Nsg35
F80.091726025414175
sg36
F-1.435007432801634
sg37
I5
sg38
Nsg39
F4.2666180041435311
sg40
Nsba(ipulsar
Pulsar
p197
(dp198
g14
Nsg15
F7.5171847841373918
sg16
F746.76332141580269
sg17
Nsg18
F2.0697146032940599
sg19
F25.367665234392348
sg20
F-44.425501317058313
sg21
I01
sg22
Nsg23
(F-4.7910749573518512
F3.6118694263547182
F0.24735650621959457
tp199
sg25
F-3.8599999999999999
sg26
Nsg27
Nsg28
Nsg29
F364.79721069335938
sg30
Nsg31
Nsg32
Nsg33
F4.7453614951164296
sg34
Nsg35
F54.215595676998745
sg36
F-1.2414737363624186
sg37
I6
sg38
Nsg39
F6.849044093385511
sg40
Nsba(ipulsar
Pulsar
p200
(dp201
g14
Nsg15
F51.620915729482448
sg16
F459.33395746481534
sg17
Nsg18
F0.61134265727121373
sg19
F0.9830130865105795
sg20
F-58.470713214072674
sg21
I01
sg22
Nsg23
(F-0.89726751907625368
F7.9495226900242724
F0.011232355059768563
tp202
sg25
F-3.8599999999999999
sg26
Nsg27
Nsg28
Nsg29
F33.059516906738281
sg30
Nsg31
Nsg32
Nsg33
F10.109696453604768
sg34
Nsg35
F18.489601574092141
sg36
F-1.9436898404754119
sg37
I8
sg38
Nsg39
F1.0527299916823674
sg40
Nsba(ipulsar
Pulsar
p203
(dp204
g14
Nsg15
F12.852914171808436
sg16
F487.50200637161316
sg17
Nsg18
F-3.9169039437457487
sg19
F6.6169863525485839
sg20
F-35.327921977477004
sg21
I01
sg22
Nsg23
(F-2.0202414686405175
F5.6496570168803348
F-0.23921105945861321
tp205
sg25
F-3.8599999999999999
sg26
Nsg27
Nsg28
Nsg29
F174.69474792480469
sg30
Nsg31
Nsg32
Nsg33
F10.457392661232573
sg34
Nsg35
F64.029039697849115
sg36
F-1.1514143916757718
sg37
I6
sg38
Nsg39
F3.5018641669832968
sg40
Nsba(ipulsar
Pulsar
p206
(dp207
g14
Nsg15
F28.502978334942092
sg16
F465.10131073085415
sg17
Nsg18
F3.6574628321841858
sg19
F0.582570395624465
sg20
F35.195547683441738
sg21
I01
sg22
Nsg23
(F1.1217662646571094
F6.9095325780748169
F0.12440838404270595
tp208
sg25
F-3.8599999999999999
sg26
Nsg27
Nsg28
Nsg29
F41.820949554443359
sg30
Nsg31
Nsg32
Nsg33
F9.5321978842851749
sg34
Nsg35
F32.265538641649684
sg36
F-1.5247065987949324
sg37
I7
sg38
Nsg39
F1.9502368109407175
sg40
Nsba(ipulsar
Pulsar
p209
(dp210
g14
Nsg15
F9.8885702815983922
sg16
F1744.4521847987146
sg17
Nsg18
F2.7173799734916702
sg19
F18.508086470655588
sg20
F34.303062153490544
sg21
I01
sg22
Nsg23
(F4.7645700050318958
F1.5162033726220117
F0.40126310294639295
tp211
sg25
F-3.8599999999999999
sg26
Nsg27
Nsg28
Nsg29
F352.857177734375
sg30
Nsg31
Nsg32
Nsg33
F4.2677745476171758
sg34
Nsg35
F56.110823046494623
sg36
F-1.2883289259688584
sg37
I5
sg38
Nsg39
F8.4637789871435078
sg40
Nsba(ipulsar
Pulsar
p212
(dp213
g14
Nsg15
F2.1169830520345334
sg16
F118.37714134116089
sg17
Nsg18
F-0.75661234726350546
sg19
F1.7339569768282161
sg20
F41.100904027614781
sg21
I01
sg22
Nsg23
(F2.7739490576310932
F5.3202637740686853
F-0.055725415757217463
tp214
sg25
F-3.8599999999999999
sg26
Nsg27
Nsg28
Nsg29
F136.36599731445312
sg30
Nsg31
Nsg32
Nsg33
F11.148720236389053
sg34
Nsg35
F53.165658129840281
sg36
F-1.4815421063642784
sg37
I6
sg38
Nsg39
F4.2200262040411154
sg40
Nsba(ipulsar
Pulsar
p215
(dp216
g14
Nsg15
F3.4235422850513881
sg16
F404.68097644161708
sg17
Nsg18
F0.93485622484289266
sg19
F12.853474690631678
sg20
F-2.8273005778816489
sg21
I01
sg22
Nsg23
(F-0.37397699798021389
F0.92743797904857606
F0.12371790030434608
tp217
sg25
F-3.8599999999999999
sg26
Nsg27
Nsg28
Nsg29
F590.5458984375
sg30
Nsg31
Nsg32
Nsg33
F8.1677616522202108
sg34
Nsg35
F40.632596763829525
sg36
F-0.87324404369279784
sg37
I-1
sg38
Nsg39
F7.5828003056278579
sg40
Nsba(ipulsar
Pulsar
p218
(dp219
g14
Nsg15
F13.082716335657466
sg16
F485.74833705424038
sg17
Nsg18
F-0.51066217455621499
sg19
F20.487437820933078
sg20
F40.730979077531074
sg21
I01
sg22
Nsg23
(F5.6963217747590811
F1.8846533470125344
F-0.077809223855909632
tp220
sg25
F-3.8599999999999999
sg26
Nsg27
Nsg28
Nsg29
F493.85958862304688
sg30
Nsg31
Nsg32
Nsg33
F6.1488273152917472
sg34
Nsg35
F70.083389340252168
sg36
F-1.4681577655210813
sg37
I6
sg38
Nsg39
F8.7302318054049373
sg40
Nsba(ipulsar
Pulsar
p221
(dp222
g14
Nsg15
F10.448016044616613
sg16
F406.36895785400128
sg17
Nsg18
F-4.6423487398575913
sg19
F0.27008043136801435
sg20
F16.241332849440024
sg21
I01
sg22
Nsg23
(F0.44101497963410458
F6.9860937431255774
F-0.12804216657935569
tp223
sg25
F-3.8599999999999999
sg26
Nsg27
Nsg28
Nsg29
F47.156078338623047
sg30
Nsg31
Nsg32
Nsg33
F10.913162910528436
sg34
Nsg35
F52.394558236540391
sg36
F-1.5759192693847235
sg37
I7
sg38
Nsg39
F1.5820243877031512
sg40
Nsba(ipulsar
Pulsar
p224
(dp225
g14
Nsg15
F44.492964914500917
sg16
F111.04680092049288
sg17
Nsg18
F-4.6542185540608871
sg19
F3.4763656398279763
sg20
F-8.6163679439811229
sg21
I01
sg22
Nsg23
(F-0.38065149456724279
F5.9879131957372032
F-0.20684497560348092
tp226
sg25
F-3.8599999999999999
sg26
Nsg27
Nsg28
Nsg29
F126.97650909423828
sg30
Nsg31
Nsg32
Nsg33
F11.920698046836955
sg34
Nsg35
F27.750875440305492
sg36
F-1.4341792311225858
sg37
I6
sg38
Nsg39
F2.5491685931691439
sg40
Nsba(ipulsar
Pulsar
p227
(dp228
g14
Nsg15
F4.3390035201736605
sg16
F1376.772655914647
sg17
Nsg18
F0.22488314062594758
sg19
F112.21355721424278
sg20
F3.0118547648452099
sg21
I01
sg22
Nsg23
(F0.54842657106437209
F-1.9233378008427369
F0.040967892240505267
tp229
sg25
F-3.8599999999999999
sg26
Nsg27
Nsg28
Nsg29
F769.503662109375
sg30
Nsg31
Nsg32
Nsg33
F4.8261996017014557
sg34
Nsg35
F37.716954664954365
sg36
F-1.4519700510533269
sg37
I2
sg38
Nsg39
F10.437836029681685
sg40
Nsba(ipulsar
Pulsar
p230
(dp231
g14
Nsg15
F12.218684197687935
sg16
F994.75668596275762
sg17
Nsg18
F3.1224079057588878
sg19
F10.657110569714956
sg20
F6.081014152264606
sg21
I01
sg22
Nsg23
(F0.94145578359216286
F-0.33713648206752511
F0.48479644598384108
tp232
sg25
F-3.8599999999999999
sg26
Nsg27
Nsg28
Nsg29
F427.31927490234375
sg30
Nsg31
Nsg32
Nsg33
F4.6046706080182718
sg34
Nsg35
F48.966569630591081
sg36
F-1.0862327963821616
sg37
I-1
sg38
Nsg39
F8.9003566102255967
sg40
Nsba(ipulsar
Pulsar
p233
(dp234
g14
Nsg15
F9.0751012600691805
sg16
F918.89030509344309
sg17
Nsg18
F0.68570230986001535
sg19
F6.0474277902447309
sg20
F-28.454096754011786
sg21
I01
sg22
Nsg23
(F-2.163510737157464
F4.5076846928555643
F0.054346465943575763
tp235
sg25
F-3.8599999999999999
sg26
Nsg27
Nsg28
Nsg29
F120.10558319091797
sg30
Nsg31
Nsg32
Nsg33
F5.8362933214367922
sg34
Nsg35
F67.371014972178827
sg36
F-1.585435742068479
sg37
I5
sg38
Nsg39
F4.5411797762052935
sg40
Nsba(ipulsar
Pulsar
p236
(dp237
g14
Nsg15
F13.526299014450801
sg16
F1110.7375454052853
sg17
Nsg18
F-2.1350102339061623
sg19
F15.034124879943908
sg20
F3.2538814798956111
sg21
I01
sg22
Nsg23
(F0.37151748695873776
F1.9651907685728285
F-0.24401248080989305
tp238
sg25
F-3.8599999999999999
sg26
Nsg27
Nsg28
Nsg29
F377.93179321289062
sg30
Nsg31
Nsg32
Nsg33
F4.8099251840667208
sg34
Nsg35
F43.184987675901127
sg36
F-1.6546503853411825
sg37
I2
sg38
Nsg39
F6.5499083218815297
sg40
Nsba(ipulsar
Pulsar
p239
(dp240
g14
Nsg15
F2.9752635901852771
sg16
F819.79217043465599
sg17
Nsg18
F-1.3915906778714136
sg19
F10.535866366904164
sg20
F37.318330713627986
sg21
I01
sg22
Nsg23
(F1.2259218733558579
F6.891815113627735
F-0.049123628643699215
tp241
sg25
F-3.8599999999999999
sg26
Nsg27
Nsg28
Nsg29
F33.997909545898438
sg30
Nsg31
Nsg32
Nsg33
F6.1908834172314053
sg34
Nsg35
F34.331833674349625
sg36
F-1.5116946747995152
sg37
I7
sg38
Nsg39
F2.0227595505199414
sg40
Nsba(ipulsar
Pulsar
p242
(dp243
g14
Nsg15
F14.700019933735803
sg16
F133.43543694076703
sg17
Nsg18
F-2.7314364004792995
sg19
F6.6302933378812599
sg20
F15.095805785851093
sg21
I01
sg22
Nsg23
(F1.6099851990114082
F2.531392434800301
F-0.29493215173385284
tp244
sg25
F-3.8599999999999999
sg26
Nsg27
Nsg28
Nsg29
F313.78414916992188
sg30
Nsg31
Nsg32
Nsg33
F10.636466542478958
sg34
Nsg35
F42.075562158864315
sg36
F-1.8199706573215919
sg37
I3
sg38
Nsg39
F6.1889670852672376
sg40
Nsba(ipulsar
Pulsar
p245
(dp246
g14
Nsg15
F9.9111613496642263
sg16
F2410.8475311429697
sg17
Nsg18
F-0.50585180931821605
sg19
F5.2168266835465582
sg20
F-23.476889731212321
sg21
I01
sg22
Nsg23
(F-1.6403608067256645
F4.7232633235675445
F-0.036354213536542945
tp247
sg25
F-3.8599999999999999
sg26
Nsg27
Nsg28
Nsg29
F296.51318359375
sg30
Nsg31
Nsg32
Nsg33
F4.2506205161070429
sg34
Nsg35
F56.58934661083746
sg36
F-1.8622153607973846
sg37
I5
sg38
Nsg39
F4.1177475794654539
sg40
Nsba(ipulsar
Pulsar
p248
(dp249
g14
Nsg15
F1.2671482218587617
sg16
F1100.6177465639528
sg17
Nsg18
F0.18677480219876194
sg19
F8.5210796270924423
sg20
F-26.298656049681515
sg21
I01
sg22
Nsg23
(F-2.7787952964892004
F2.8772029299667929
F0.020445646425836413
tp250
sg25
F-3.8599999999999999
sg26
Nsg27
Nsg28
Nsg29
F487.36489868164062
sg30
Nsg31
Nsg32
Nsg33
F3.8298181826837321
sg34
Nsg35
F24.905261044023188
sg36
F-1.7980821426360492
sg37
I4
sg38
Nsg39
F6.2719987416311156
sg40
Nsba(ipulsar
Pulsar
p251
(dp252
g14
Nsg15
F28.35217363082387
sg16
F154.87288123290182
sg17
Nsg18
F5.5770829743686203
sg19
F55.539093102237992
sg20
F-51.933639081277228
sg21
I01
sg22
Nsg23
(F-2.5094265261106958
F6.5347362999628382
F0.31123965843903623
tp253
sg25
F-3.8599999999999999
sg26
Nsg27
Nsg28
Nsg29
F144.70561218261719
sg30
Nsg31
Nsg32
Nsg33
F12.838621102171878
sg34
Nsg35
F63.238594928866185
sg36
F-2.0285162100232235
sg37
I7
sg38
Nsg39
F3.2025541409345442
sg40
Nsba(ipulsar
Pulsar
p254
(dp255
g14
Nsg15
F20.599168604967531
sg16
F399.67145266126067
sg17
Nsg18
F-2.6268817165635179
sg19
F6.0860975432288686
sg20
F-29.260807978688312
sg21
I01
sg22
Nsg23
(F-2.2648338388915201
F4.4576370065553679
F-0.21258865442981978
tp256
sg25
F-3.8599999999999999
sg26
Nsg27
Nsg28
Nsg29
F265.32339477539062
sg30
Nsg31
Nsg32
Nsg33
F11.134721052045302
sg34
Nsg35
F83.460498894131604
sg36
F-1.1047963771799589
sg37
I5
sg38
Nsg39
F4.6384657834839125
sg40
Nsba(ipulsar
Pulsar
p257
(dp258
g14
Nsg15
F45.354801368127951
sg16
F269.95891898624922
sg17
Nsg18
F4.6210985411673979
sg19
F27.072128418256266
sg20
F-27.615040950137583
sg21
I01
sg22
Nsg23
(F-3.1712046987989324
F2.4379214011767427
F0.55298506775678857
tp259
sg25
F-3.8599999999999999
sg26
Nsg27
Nsg28
Nsg29
F249.715576171875
sg30
Nsg31
Nsg32
Nsg33
F14.276342710872655
sg34
Nsg35
F39.654821541758473
sg36
F-1.7581106205299615
sg37
I4
sg38
Nsg39
F6.8637547060743183
sg40
Nsba(ipulsar
Pulsar
p260
(dp261
g14
Nsg15
F11.430643927675304
sg16
F610.67140933950418
sg17
Nsg18
F2.0641622553476395
sg19
F22.729383823860172
sg20
F-27.343495396738273
sg21
I01
sg22
Nsg23
(F-2.0332882185399979
F4.5679031316728294
F0.15954711251920978
tp262
sg25
F-3.8599999999999999
sg26
Nsg27
Nsg28
Nsg29
F117.27222442626953
sg30
Nsg31
Nsg32
Nsg33
F6.3843911229016284
sg34
Nsg35
F64.707443058243783
sg36
F-1.3428225227748718
sg37
I5
sg38
Nsg39
F4.4295713159035062
sg40
Nsba(ipulsar
Pulsar
p263
(dp264
g14
Nsg15
F6.1789067523517014
sg16
F1402.7543273744841
sg17
Nsg18
F2.3828590533651495
sg19
F2.6701364590887899
sg20
F-9.6631057424907869
sg21
I01
sg22
Nsg23
(F-0.7792668376693701
F3.9233586626395476
F0.19318753285365955
tp265
sg25
F-3.8599999999999999
sg26
Nsg27
Nsg28
Nsg29
F291.48422241210938
sg30
Nsg31
Nsg32
Nsg33
F3.874076065323012
sg34
Nsg35
F43.88238252817164
sg36
F-1.688277846473478
sg37
I4
sg38
Nsg39
F4.6465281832759588
sg40
Nsba(ipulsar
Pulsar
p266
(dp267
g14
Nsg15
F36.152547766204151
sg16
F243.01544602184953
sg17
Nsg18
F4.9499642431283579
sg19
F9.592864288690734
sg20
F-43.778008113448394
sg21
I01
sg22
Nsg23
(F-5.0692701839865517
F3.2097507382575605
F0.6345782785471803
tp268
sg25
F-3.8599999999999999
sg26
Nsg27
Nsg28
Nsg29
F289.45785522460938
sg30
Nsg31
Nsg32
Nsg33
F11.3513342544469
sg34
Nsg35
F37.793976740429997
sg36
F-0.98746924829238547
sg37
I6
sg38
Nsg39
F7.3543814859732004
sg40
Nsba(ipulsar
Pulsar
p269
(dp270
g14
Nsg15
F7.9388518356687534
sg16
F260.14169894188694
sg17
Nsg18
F-2.3468312865428911
sg19
F17.926994629232276
sg20
F0
sg21
I01
sg22
Nsg23
(F0
F0
F-0.34835426496131011
tp271
sg25
F-3.8599999999999999
sg26
Nsg27
Nsg28
Nsg29
F459.47442626953125
sg30
Nsg31
Nsg32
Nsg33
F9.4899444299740292
sg34
Nsg35
F74.299302559224429
sg36
F-1.5161673256824866
sg37
I0
sg38
Nsg39
F8.5071352812751684
sg40
Nsba(ipulsar
Pulsar
p272
(dp273
g14
Nsg15
F8.3422853569143793
sg16
F557.89278937216147
sg17
Nsg18
F-1.361025963580961
sg19
F18.181597113023518
sg20
F-41.439984638977791
sg21
I01
sg22
Nsg23
(F-5.5980116482470041
F2.1592280069716709
F-0.20095990867685221
tp274
sg25
F-3.8599999999999999
sg26
Nsg27
Nsg28
Nsg29
F496.35055541992188
sg30
Nsg31
Nsg32
Nsg33
F8.499201801541723
sg34
Nsg35
F56.39397349985304
sg36
F-1.4086683950783718
sg37
I6
sg38
Nsg39
F8.4607037985250955
sg40
Nsba(ipulsar
Pulsar
p275
(dp276
g14
Nsg15
F31.913009916122423
sg16
F587.29447634399344
sg17
Nsg18
F1.0314642333055517
sg19
F6.8167130028392933
sg20
F-69.646609314536889
sg21
I01
sg22
Nsg23
(F-3.4282193975528683
F7.2282301957147332
F0.065833291933886651
tp277
sg25
F-3.8599999999999999
sg26
Nsg27
Nsg28
Nsg29
F194.50349426269531
sg30
Nsg31
Nsg32
Nsg33
F9.9062735771882764
sg34
Nsg35
F37.587805937279164
sg36
F-1.5012905573598876
sg37
I-8
sg38
Nsg39
F3.6571055077993564
sg40
Nsba(ipulsar
Pulsar
p278
(dp279
g14
Nsg15
F7.8273586975899017
sg16
F1549.4292542773542
sg17
Nsg18
F5.8595599207739832
sg19
F8.6705553028657594
sg20
F0
sg21
I01
sg22
Nsg23
(F0
F-0
F0.87232651896292401
tp280
sg25
F-3.8599999999999999
sg26
Nsg27
Nsg28
Nsg29
F319.23666381835938
sg30
Nsg31
Nsg32
Nsg33
F3.1179336229766421
sg34
Nsg35
F35.902179500433512
sg36
F-1.4509114942150036
sg37
I0
sg38
Nsg39
F8.5446447296353973
sg40
Nsba(ipulsar
Pulsar
p281
(dp282
g14
Nsg15
F9.4373900758790974
sg16
F248.53304791222865
sg17
Nsg18
F1.9890385951030454
sg19
F1.7843858071164684
sg20
F-96.329879816084244
sg21
I01
sg22
Nsg23
(F-2.1525903520751748
F8.7387845136582278
F0.075216343769252597
tp283
sg25
F-3.8599999999999999
sg26
Nsg27
Nsg28
Nsg29
F239.25668334960938
sg30
Nsg31
Nsg32
Nsg33
F12.628942331829837
sg34
Nsg35
F61.453040184881758
sg36
F-1.4400731516302394
sg37
I9
sg38
Nsg39
F2.1670996207327744
sg40
Nsba(ipulsar
Pulsar
p284
(dp285
g14
Nsg15
F32.419043324071083
sg16
F564.80766288184645
sg17
Nsg18
F-5.6416231879070384
sg19
F13.672988115363989
sg20
F-54.53529643589156
sg21
I01
sg22
Nsg23
(F-3.1735499037113808
F6.2392772825587324
F-0.38490784055251004
tp286
sg25
F-3.8599999999999999
sg26
Nsg27
Nsg28
Nsg29
F168.52639770507812
sg30
Nsg31
Nsg32
Nsg33
F9.6752167929554656
sg34
Nsg35
F36.963372212398561
sg36
F-0.93743830084543456
sg37
I7
sg38
Nsg39
F3.9154106096577328
sg40
Nsba(ipulsar
Pulsar
p287
(dp288
g14
Nsg15
F10.254566583715354
sg16
F1097.1814305041871
sg17
Nsg18
F-4.6491107449548492
sg19
F3.6662369857038586
sg20
F-30.543102421568939
sg21
I01
sg22
Nsg23
(F-2.4405288221350445
F4.3639224406866042
F-0.39053752208528347
tp289
sg25
F-3.8599999999999999
sg26
Nsg27
Nsg28
Nsg29
F224.7891845703125
sg30
Nsg31
Nsg32
Nsg33
F5.0417649954137129
sg34
Nsg35
F61.90385968458537
sg36
F-1.7344065681032259
sg37
I5
sg38
Nsg39
F4.8182816505974655
sg40
Nsba(ipulsar
Pulsar
p290
(dp291
g14
Nsg15
F17.90337441063518
sg16
F390.96745597071885
sg17
Nsg18
F-1.7559367507455648
sg19
F34.564962641504813
sg20
F-3.0210270600074725
sg21
I01
sg22
Nsg23
(F-0.49446671090714051
F-0.86919656683898283
F-0.2876262770900968
tp292
sg25
F-3.8599999999999999
sg26
Nsg27
Nsg28
Nsg29
F565.5341796875
sg30
Nsg31
Nsg32
Nsg33
F9.3842914698046922
sg34
Nsg35
F80.142581310229431
sg36
F-1.9430059576577741
sg37
I1
sg38
Nsg39
F9.3866431971997013
sg40
Nsba(ipulsar
Pulsar
p293
(dp294
g14
Nsg15
F11.961661774057914
sg16
F1061.7361275404483
sg17
Nsg18
F1.779103272793165
sg19
F16.065090406142019
sg20
F17.962910526599078
sg21
I01
sg22
Nsg23
(F2.943540907745164
F-0.57928138622846959
F0.29646405320008601
tp295
sg25
F-3.8599999999999999
sg26
Nsg27
Nsg28
Nsg29
F580.210205078125
sg30
Nsg31
Nsg32
Nsg33
F6.1512001557428508
sg34
Nsg35
F78.539625268217009
sg36
F-1.2764913327213618
sg37
I-3
sg38
Nsg39
F9.5491190431748105
sg40
Nsba(ipulsar
Pulsar
p296
(dp297
g14
Nsg15
F1.1285184219689943
sg16
F235.75178741528168
sg17
Nsg18
F2.8391683575893829
sg19
F0.33067435354174041
sg20
F1.5974682689040733
sg21
I01
sg22
Nsg23
(F0.06973207042921889
F5.9995947728453842
F0.12405189579072902
tp298
sg25
F-3.8599999999999999
sg26
Nsg27
Nsg28
Nsg29
F131.05097961425781
sg30
Nsg31
Nsg32
Nsg33
F13.412929185269576
sg34
Nsg35
F11.134507068568528
sg36
F-1.6450472810509731
sg37
I6
sg38
Nsg39
F2.5044515835762815
sg40
Nsba(ipulsar
Pulsar
p299
(dp300
g14
Nsg15
F20.97781459009995
sg16
F361.13579955358847
sg17
Nsg18
F-2.3525834176410094
sg19
F8.2239176259991495
sg20
F0.29504174449186643
sg21
I01
sg22
Nsg23
(F0.028322913128247251
F2.9998662991193337
F-0.22596728434560107
tp301
sg25
F-3.8599999999999999
sg26
Nsg27
Nsg28
Nsg29
F319.89324951171875
sg30
Nsg31
Nsg32
Nsg33
F9.8171154674293284
sg34
Nsg35
F59.96089088522308
sg36
F-1.6850760504438527
sg37
I3
sg38
Nsg39
F5.5048464218873399
sg40
Nsba(ipulsar
Pulsar
p302
(dp303
g14
Nsg15
F10.976524283016103
sg16
F815.11249427121641
sg17
Nsg18
F-2.5560256961023997
sg19
F4.842953194244414
sg20
F3.7778642503190594
sg21
I01
sg22
Nsg23
(F0.29787690727705141
F3.9888932485228352
F-0.20181743129949548
tp304
sg25
F-3.8599999999999999
sg26
Nsg27
Nsg28
Nsg29
F237.8614501953125
sg30
Nsg31
Nsg32
Nsg33
F5.4843901375099327
sg34
Nsg35
F72.03409489397491
sg36
F-1.5764475862617713
sg37
I4
sg38
Nsg39
F4.5254331340423235
sg40
Nsba(ipulsar
Pulsar
p305
(dp306
g14
Nsg15
F36.445794444392284
sg16
F332.634499547232
sg17
Nsg18
F1.8944576169860261
sg19
F19.46803441299101
sg20
F-0.69088244088569695
sg21
I01
sg22
Nsg23
(F-0.066332011882211286
F2.9992665877176803
F0.18195866392896448
tp307
sg25
F-3.8599999999999999
sg26
Nsg27
Nsg28
Nsg29
F371.7596435546875
sg30
Nsg31
Nsg32
Nsg33
F11.316683795683435
sg34
Nsg35
F21.16182535468181
sg36
F-1.5629328479080828
sg37
I3
sg38
Nsg39
F5.5041418008785215
sg40
Nsba(ipulsar
Pulsar
p308
(dp309
g14
Nsg15
F17.589390361052242
sg16
F591.03941348305887
sg17
Nsg18
F4.1194131159925211
sg19
F1.6462708817308467
sg20
F30.470324856436665
sg21
I01
sg22
Nsg23
(F0.91809793836725129
F6.9395314089328686
F0.13039596910749393
tp310
sg25
F-3.8599999999999999
sg26
Nsg27
Nsg28
Nsg29
F52.708156585693359
sg30
Nsg31
Nsg32
Nsg33
F6.5180408396856384
sg34
Nsg35
F42.881918779196766
sg36
F-1.2371005371547024
sg37
I-7
sg38
Nsg39
F1.8152049903249818
sg40
Nsba(ipulsar
Pulsar
p311
(dp312
g14
Nsg15
F11.742029156474537
sg16
F735.33632458385716
sg17
Nsg18
F2.3973274378033733
sg19
F4.8679322666384328
sg20
F49.275023344276363
sg21
I01
sg22
Nsg23
(F2.1267312367371431
F6.6691089544770898
F0.11748640679842008
tp313
sg25
F-3.8599999999999999
sg26
Nsg27
Nsg28
Nsg29
F50.040321350097656
sg30
Nsg31
Nsg32
Nsg33
F6.9530321929189745
sg34
Nsg35
F65.934377756321695
sg36
F-1.217580544605815
sg37
I7
sg38
Nsg39
F2.8087276175649141
sg40
Nsba(ipulsar
Pulsar
p314
(dp315
g14
Nsg15
F109.22995665175404
sg16
F98.895204599465174
sg17
Nsg18
F3.4098779143917439
sg19
F326.58565988333044
sg20
F-14.808148187843928
sg21
I01
sg22
Nsg23
(F-0.94931550529773134
F4.9090528690778337
F0.22131331622173722
tp316
sg25
F-3.8599999999999999
sg26
Nsg27
Nsg28
Nsg29
F202.02845764160156
sg30
Nsg31
Nsg32
Nsg33
F23.474082509217975
sg34
Nsg35
F18.612811220746863
sg36
F-1.8649027155694284
sg37
I5
sg38
Nsg39
F3.7208978499300258
sg40
Nsba(ipulsar
Pulsar
p317
(dp318
g14
Nsg15
F22.458850053634645
sg16
F337.45972147886346
sg17
Nsg18
F0.36356956194660217
sg19
F6.5255645354618412
sg20
F25.476011518020805
sg21
I01
sg22
Nsg23
(F1.2543210726545229
F5.8674252144100487
F0.01850446361666155
tp319
sg25
F-3.8599999999999999
sg26
Nsg27
Nsg28
Nsg29
F130.9791259765625
sg30
Nsg31
Nsg32
Nsg33
F10.025280662195097
sg34
Nsg35
F61.249907096278505
sg36
F-1.724919384981447
sg37
I6
sg38
Nsg39
F2.9161813678512711
sg40
Nsba(ipulsar
Pulsar
p320
(dp321
g14
Nsg15
F22.839037334418993
sg16
F337.70810717180603
sg17
Nsg18
F3.8090397914461485
sg19
F10.017937637469858
sg20
F-4.0817726433531991
sg21
I01
sg22
Nsg23
(F-0.54682265958486576
F0.83724845712878682
F0.51147108390769247
tp322
sg25
F-3.8599999999999999
sg26
Nsg27
Nsg28
Nsg29
F362.38397216796875
sg30
Nsg31
Nsg32
Nsg33
F12.863198009427126
sg34
Nsg35
F40.6857256836443
sg36
F-1.1716397121766036
sg37
I1
sg38
Nsg39
F7.6992453460377739
sg40
Nsba(ipulsar
Pulsar
p323
(dp324
g14
Nsg15
F19.939150820144249
sg16
F314.68795050995578
sg17
Nsg18
F1.1761446353364455
sg19
F10.430393627205703
sg20
F-16.954262382230862
sg21
I01
sg22
Nsg23
(F-0.77757021184472752
F5.9494020342931728
F0.054744306592446522
tp325
sg25
F-3.8599999999999999
sg26
Nsg27
Nsg28
Nsg29
F149.95689392089844
sg30
Nsg31
Nsg32
Nsg33
F7.1174293108104916
sg34
Nsg35
F40.073339486713706
sg36
F-1.352327940583282
sg37
I6
sg38
Nsg39
F2.6670512473742134
sg40
Nsba(ipulsar
Pulsar
p326
(dp327
g14
Nsg15
F21.690057080167602
sg16
F379.44658287311324
sg17
Nsg18
F-3.0883109675959597
sg19
F11.657080447634053
sg20
F-35.800340427660295
sg21
I01
sg22
Nsg23
(F-3.7246385586467454
F3.3357259490914255
F-0.34353847318674763
tp328
sg25
F-3.8599999999999999
sg26
Nsg27
Nsg28
Nsg29
F319.50729370117188
sg30
Nsg31
Nsg32
Nsg33
F6.847170634274681
sg34
Nsg35
F34.564934745074439
sg36
F-2.0390261644128915
sg37
I5
sg38
Nsg39
F6.3765725549079448
sg40
Nsba(ipulsar
Pulsar
p329
(dp330
g14
Nsg15
F16.831244537791033
sg16
F393.32858724220978
sg17
Nsg18
F2.0195862098637414
sg19
F7.7944503846276048
sg20
F-15.379029423346081
sg21
I01
sg22
Nsg23
(F-1.2971958738549383
F3.7838185560163589
F0.17248304884084173
tp331
sg25
F-3.8599999999999999
sg26
Nsg27
Nsg28
Nsg29
F325.93157958984375
sg30
Nsg31
Nsg32
Nsg33
F8.3404339216687884
sg34
Nsg35
F26.163653133249888
sg36
F-1.1049035857018707
sg37
I-4
sg38
Nsg39
F4.8943676762028545
sg40
Nsba(ipulsar
Pulsar
p332
(dp333
g14
Nsg15
F2.8370786979582197
sg16
F3647.5419076029434
sg17
Nsg18
F1.7803131308842393
sg19
F7.9903539527582934
sg20
F42.156873168655906
sg21
I01
sg22
Nsg23
(F5.4764938182720133
F2.4511253453115027
F0.25362280011110727
tp334
sg25
F-3.8599999999999999
sg26
Nsg27
Nsg28
Nsg29
F325.8446044921875
sg30
Nsg31
Nsg32
Nsg33
F2.1540429480388172
sg34
Nsg35
F35.898189218185564
sg36
F-1.7806659763935784
sg37
I6
sg38
Nsg39
F8.1636507552957376
sg40
Nsba(ipulsar
Pulsar
p335
(dp336
g14
Nsg15
F25.452485292810916
sg16
F312.03284207576525
sg17
Nsg18
F2.5145377835220519
sg19
F0.71662687601375086
sg20
F-2.2926901517786669
sg21
I01
sg22
Nsg23
(F-0.060064861865849473
F6.9997422961398392
F0.065936841488593731
tp337
sg25
F-3.8599999999999999
sg26
Nsg27
Nsg28
Nsg29
F66.943740844726562
sg30
Nsg31
Nsg32
Nsg33
F9.2060228104720956
sg34
Nsg35
F43.97172113991035
sg36
F-1.4590299223501579
sg37
I7
sg38
Nsg39
F1.5029067278737618
sg40
Nsba(ipulsar
Pulsar
p338
(dp339
g14
Nsg15
F3.0517671637308688
sg16
F2194.2795732882782
sg17
Nsg18
F0.51868081353689688
sg19
F1.3128288341444474
sg20
F23.694276005525101
sg21
I01
sg22
Nsg23
(F1.1455634242972248
F5.8896251528354853
F0.02580701505074566
tp340
sg25
F-3.8599999999999999
sg26
Nsg27
Nsg28
Nsg29
F130.02699279785156
sg30
Nsg31
Nsg32
Nsg33
F3.1533388754785503
sg34
Nsg35
F64.662441732232452
sg36
F-1.4880489973030737
sg37
I6
sg38
Nsg39
F2.8507961000083073
sg40
Nsba(ipulsar
Pulsar
p341
(dp342
g14
Nsg15
F12.250858763517224
sg16
F299.15998421985154
sg17
Nsg18
F4.8430306918275461
sg19
F7.7862569133936388
sg20
F-39.810216218722395
sg21
I01
sg22
Nsg23
(F-2.5628206416553962
F5.4251221515008332
F0.33915756524200574
tp343
sg25
F-3.8599999999999999
sg26
Nsg27
Nsg28
Nsg29
F184.8736572265625
sg30
Nsg31
Nsg32
Nsg33
F9.7743533765722557
sg34
Nsg35
F57.381786674055405
sg36
F-1.6438004259143968
sg37
I6
sg38
Nsg39
F4.0172069001417796
sg40
Nsba(ipulsar
Pulsar
p344
(dp345
g14
Nsg15
F15.46811375059321
sg16
F193.12667299121469
sg17
Nsg18
F-2.0482523644992057
sg19
F12.028226695568803
sg20
F5.984446589233257
sg21
I01
sg22
Nsg23
(F0.69443776528100032
F1.875568231270601
F-0.23821428463163996
tp346
sg25
F-3.8599999999999999
sg26
Nsg27
Nsg28
Nsg29
F385.05648803710938
sg30
Nsg31
Nsg32
Nsg33
F14.88210248500785
sg34
Nsg35
F46.224013942859443
sg36
F-1.6717557557034852
sg37
I2
sg38
Nsg39
F6.6649895809222643
sg40
Nsba(ipulsar
Pulsar
p347
(dp348
g14
Nsg15
F13.877983316419826
sg16
F324.33173153907745
sg17
Nsg18
F0.77734753478372054
sg19
F6.3002232447959168
sg20
F46.906269834000177
sg21
I01
sg22
Nsg23
(F1.8774040757649315
F6.7435416463681177
F0.034882944604804976
tp349
sg25
F-3.8599999999999999
sg26
Nsg27
Nsg28
Nsg29
F43.633567810058594
sg30
Nsg31
Nsg32
Nsg33
F7.1320787153647975
sg34
Nsg35
F40.838771273668904
sg36
F-1.9622000239249933
sg37
I7
sg38
Nsg39
F2.5711882139521216
sg40
Nsba(ipulsar
Pulsar
p350
(dp351
g14
Nsg15
F4.7543733371241457
sg16
F701.16660804631226
sg17
Nsg18
F-3.7411421189539866
sg19
F2.6688070795961454
sg20
F37.797598098270861
sg21
I01
sg22
Nsg23
(F2.2919334168281358
F5.5450014619318635
F-0.24452892506895077
tp352
sg25
F-3.8599999999999999
sg26
Nsg27
Nsg28
Nsg29
F109.56680297851562
sg30
Nsg31
Nsg32
Nsg33
F6.4716149268872591
sg34
Nsg35
F74.82910349976936
sg36
F-1.2654676059379397
sg37
I6
sg38
Nsg39
F3.7476351933390868
sg40
Nsba(ipulsar
Pulsar
p353
(dp354
g14
Nsg15
F4.6266644718029077
sg16
F585.20297762489827
sg17
Nsg18
F2.8355265214637231
sg19
F1.9308848408364667
sg20
F9.3914136999654279
sg21
I01
sg22
Nsg23
(F0.58455340904632347
F4.9657121656387133
F0.17743044022122864
tp355
sg25
F-3.8599999999999999
sg26
Nsg27
Nsg28
Nsg29
F188.86897277832031
sg30
Nsg31
Nsg32
Nsg33
F5.6678734310261492
sg34
Nsg35
F70.30655016920042
sg36
F-1.0624194862611409
sg37
I5
sg38
Nsg39
F3.5866941248535498
sg40
Nsba(ipulsar
Pulsar
p356
(dp357
g14
Nsg15
F37.914584589719006
sg16
F184.34158983021058
sg17
Nsg18
F5.7522928678818062
sg19
F6.8877961491359674
sg20
F23.753604567863981
sg21
I01
sg22
Nsg23
(F0.6744613606543115
F6.9674315118976473
F0.1686723724214268
tp358
sg25
F-3.8599999999999999
sg26
Nsg27
Nsg28
Nsg29
F55.515892028808594
sg30
Nsg31
Nsg32
Nsg33
F17.629223648492435
sg34
Nsg35
F54.089919408272934
sg36
F-2.2309520518834129
sg37
I7
sg38
Nsg39
F1.6828887862714723
sg40
Nsba(ipulsar
Pulsar
p359
(dp360
g14
Nsg15
F17.508139601462368
sg16
F330.5423091707994
sg17
Nsg18
F1.0256448466306296
sg19
F2.0562571020025713
sg20
F12.49059581575259
sg21
I01
sg22
Nsg23
(F0.55959964223059089
F5.9738470218457547
F0.046321551677656322
tp361
sg25
F-3.8599999999999999
sg26
Nsg27
Nsg28
Nsg29
F122.65367126464844
sg30
Nsg31
Nsg32
Nsg33
F7.6372094220445215
sg34
Nsg35
F43.402395801247351
sg36
F-1.7279928128710982
sg37
I6
sg38
Nsg39
F2.5878072406522081
sg40
Nsba(ipulsar
Pulsar
p362
(dp363
g14
Nsg15
F14.709870275727113
sg16
F294.36769418068582
sg17
Nsg18
F5.7503675388998792
sg19
F3.3809235255520411
sg20
F-11.538156411258683
sg21
I01
sg22
Nsg23
(F-0.94160397524795958
F3.8875933369884819
F0.47405464697777122
tp364
sg25
F-3.8599999999999999
sg26
Nsg27
Nsg28
Nsg29
F207.2088623046875
sg30
Nsg31
Nsg32
Nsg33
F8.2436854559793691
sg34
Nsg35
F80.918306196795726
sg36
F-1.8615835879986735
sg37
I4
sg38
Nsg39
F4.7313466454612074
sg40
Nsba(ipulsar
Pulsar
p365
(dp366
g14
Nsg15
F33.914050757946477
sg16
F224.44788502832634
sg17
Nsg18
F-4.8939656323988103
sg19
F22.470439498865247
sg20
F0
sg21
I01
sg22
Nsg23
(F0
F0
F-0.72780526725243999
tp367
sg25
F-3.8599999999999999
sg26
Nsg27
Nsg28
Nsg29
F330.68820190429688
sg30
Nsg31
Nsg32
Nsg33
F12.577597219270393
sg34
Nsg35
F48.202118671803774
sg36
F-1.3925885323219716
sg37
I0
sg38
Nsg39
F8.531101951508985
sg40
Nsba(ipulsar
Pulsar
p368
(dp369
g14
Nsg15
F17.638930935589489
sg16
F570.89136857034828
sg17
Nsg18
F-2.6158426839064326
sg19
F4.3073808741167454
sg20
F-0.41010598858002517
sg21
I01
sg22
Nsg23
(F-0.03221112744209547
F3.9998703033059595
F-0.20560185937391323
tp370
sg25
F-3.8599999999999999
sg26
Nsg27
Nsg28
Nsg29
F246.34077453613281
sg30
Nsg31
Nsg32
Nsg33
F8.5880082895637209
sg34
Nsg35
F72.035085201509389
sg36
F-1.6725603053532561
sg37
I4
sg38
Nsg39
F4.5049391747699215
sg40
Nsba(ipulsar
Pulsar
p371
(dp372
g14
Nsg15
F13.806858711937609
sg16
F364.38035576370555
sg17
Nsg18
F2.7411397306729004
sg19
F23.395739554380381
sg20
F-3.2491806369088145
sg21
I01
sg22
Nsg23
(F-0.43132555348768742
F0.9021963571798215
F0.36435675676485318
tp373
sg25
F-3.8599999999999999
sg26
Nsg27
Nsg28
Nsg29
F414.51416015625
sg30
Nsg31
Nsg32
Nsg33
F7.4503484068588408
sg34
Nsg35
F50.636246215478025
sg36
F-1.8552627145043719
sg37
I1
sg38
Nsg39
F7.618754345307587
sg40
Nsba(ipulsar
Pulsar
p374
(dp375
g14
Nsg15
F9.8735687254360567
sg16
F261.86398410241094
sg17
Nsg18
F-1.9800855051685993
sg19
F36.531435959236262
sg20
F-1.4058612898655387
sg21
I01
sg22
Nsg23
(F-0.18448500564201559
F0.98283532837055954
F-0.25996750702235705
tp376
sg25
F-3.8599999999999999
sg26
Nsg27
Nsg28
Nsg29
F454.6865234375
sg30
Nsg31
Nsg32
Nsg33
F13.246615857859132
sg34
Nsg35
F37.855367115983128
sg36
F-1.4550527942831961
sg37
I1
sg38
Nsg39
F7.5239206882055782
sg40
Nsba(ipulsar
Pulsar
p377
(dp378
g14
Nsg15
F6.6106145415820778
sg16
F2697.4328382414033
sg17
Nsg18
F-3.9423183165395175
sg19
F16.243656206652453
sg20
F-47.035228046104343
sg21
I01
sg22
Nsg23
(F-6.5890265649570745
F2.3632031072867981
F-0.62052619774041928
tp379
sg25
F-3.8599999999999999
sg26
Nsg27
Nsg28
Nsg29
F336.12100219726562
sg30
Nsg31
Nsg32
Nsg33
F3.0876423919141542
sg34
Nsg35
F37.706720282063031
sg36
F-0.76865856511869557
sg37
I7
sg38
Nsg39
F9.0255526112369768
sg40
Nsba(ipulsar
Pulsar
p380
(dp381
g14
Nsg15
F8.2408339419463204
sg16
F1138.730684339469
sg17
Nsg18
F3.0122212170107567
sg19
F7.2063835313528388
sg20
F16.383962519880274
sg21
I01
sg22
Nsg23
(F1.7916344560174879
F2.4062514365732688
F0.33423552709650073
tp382
sg25
F-3.8599999999999999
sg26
Nsg27
Nsg28
Nsg29
F325.2159423828125
sg30
Nsg31
Nsg32
Nsg33
F6.9411642661201034
sg34
Nsg35
F73.960984271497708
sg36
F-1.6441317182295851
sg37
I3
sg38
Nsg39
F6.3604590216294845
sg40
Nsbasb.